;***************************************************************
;* TMS320C2000 G3 C/C++ Codegen                               PC v20.2.1.LTS *
;* Date/Time created: Wed Apr 24 21:24:33 2024                 *
;***************************************************************
	.compiler_opts --abi=coffabi --float_support=fpu32 --hll_source=on --mem_model:code=flat --mem_model:data=large --object_format=coff --silicon_errata_fpu1_workaround=off --silicon_version=28 --symdebug:dwarf --symdebug:dwarf_version=3 --tmu_support=tmu0 
	.asg	XAR2, FP

$C$DW$CU	.dwtag  DW_TAG_compile_unit
	.dwattr $C$DW$CU, DW_AT_name("C:/TI/c2000/C2000Ware_4_00_00_00/device_support/f2837xd/common/source/F2837xD_DefaultISR.c")
	.dwattr $C$DW$CU, DW_AT_producer("TI TMS320C2000 G3 C/C++ Codegen PC v20.2.1.LTS Copyright (c) 1996-2018 Texas Instruments Incorporated")
	.dwattr $C$DW$CU, DW_AT_TI_version(0x01)
	.dwattr $C$DW$CU, DW_AT_comp_dir("U:\Desktop\final 598\newstuff\programOntoBoard_ert_rtw\CCS_Project\Debug")
;	C:\PROGRA~3\MATLAB\tic2000\3P778C~1.INS\TIC28X~1.INS\ti-cgt-c2000_20.2.1.LTS\bin\ac2000.exe -@C:\\Users\\granttm2\\AppData\\Local\\Temp\\{34A804AE-0FF8-44CD-B50F-C829D922F788} 
	.sect	".text:retain"
	.retain
	.retainrefs
	.global	_TIMER1_ISR

$C$DW$1	.dwtag  DW_TAG_subprogram
	.dwattr $C$DW$1, DW_AT_name("TIMER1_ISR")
	.dwattr $C$DW$1, DW_AT_low_pc(_TIMER1_ISR)
	.dwattr $C$DW$1, DW_AT_high_pc(0x00)
	.dwattr $C$DW$1, DW_AT_TI_symbol_name("_TIMER1_ISR")
	.dwattr $C$DW$1, DW_AT_external
	.dwattr $C$DW$1, DW_AT_TI_begin_file("C:/TI/c2000/C2000Ware_4_00_00_00/device_support/f2837xd/common/source/F2837xD_DefaultISR.c")
	.dwattr $C$DW$1, DW_AT_TI_begin_line(0x34)
	.dwattr $C$DW$1, DW_AT_TI_begin_column(0x10)
	.dwattr $C$DW$1, DW_AT_TI_interrupt
	.dwattr $C$DW$1, DW_AT_TI_max_frame_size(-6)
	.dwpsn	file "C:/TI/c2000/C2000Ware_4_00_00_00/device_support/f2837xd/common/source/F2837xD_DefaultISR.c",line 53,column 1,is_stmt,address _TIMER1_ISR,isa 0

	.dwfde $C$DW$CIE, _TIMER1_ISR
;----------------------------------------------------------------------
;  52 | interrupt void TIMER1_ISR(void)                                        
;  54 | //                                                                     
;  55 | // Insert ISR Code here                                                
;  56 | //                                                                     
;  58 | //                                                                     
;  59 | // Next two lines for debug only to halt the processor here            
;  60 | // Remove after inserting ISR Code                                     
;  61 | //                                                                     
;----------------------------------------------------------------------

;***************************************************************
;* FNAME: _TIMER1_ISR                   FR SIZE:   4           *
;*                                                             *
;* FUNCTION ENVIRONMENT                                        *
;*                                                             *
;* FUNCTION PROPERTIES                                         *
;*                            0 Parameter,  0 Auto,  4 SOE     *
;***************************************************************

_TIMER1_ISR:
	.dwcfi	cfa_offset, -2
	.dwcfi	save_reg_to_mem, 26, 0
        ASP       ; [CPU_ALU] 
        PUSH      RB                    ; [CPU_FPU] 
	.dwcfi	save_reg_to_mem, 74, 4
	.dwcfi	cfa_offset, -4
        MOV32     *SP++,STF             ; [CPU_FPU] 
	.dwcfi	save_reg_to_mem, 40, 6
	.dwcfi	cfa_offset, -6
        SETFLG    RNDF32=1, RNDF64=1    ; [CPU_FPU] 
        CLRC      PAGE0,OVM             ; [CPU_ALU] 
        CLRC      AMODE                 ; [CPU_ALU] 
	.dwpsn	file "C:/TI/c2000/C2000Ware_4_00_00_00/device_support/f2837xd/common/source/F2837xD_DefaultISR.c",line 62,column 5,is_stmt,isa 0
;----------------------------------------------------------------------
;  62 | asm ("      ESTOP0");                                                  
;----------------------------------------------------------------------
      ESTOP0
$C$L1:    
	.dwpsn	file "C:/TI/c2000/C2000Ware_4_00_00_00/device_support/f2837xd/common/source/F2837xD_DefaultISR.c",line 63,column 5,is_stmt,isa 0
;----------------------------------------------------------------------
;  63 | for(;;);                                                               
;----------------------------------------------------------------------
        B         $C$L1,UNC             ; [CPU_ALU] |63| 
        ; branch occurs ; [] |63| 
	.dwattr $C$DW$1, DW_AT_TI_end_file("C:/TI/c2000/C2000Ware_4_00_00_00/device_support/f2837xd/common/source/F2837xD_DefaultISR.c")
	.dwattr $C$DW$1, DW_AT_TI_end_line(0x40)
	.dwattr $C$DW$1, DW_AT_TI_end_column(0x01)
	.dwendentry
	.dwendtag $C$DW$1

	.sect	".text:retain"
	.retain
	.retainrefs
	.global	_TIMER2_ISR

$C$DW$2	.dwtag  DW_TAG_subprogram
	.dwattr $C$DW$2, DW_AT_name("TIMER2_ISR")
	.dwattr $C$DW$2, DW_AT_low_pc(_TIMER2_ISR)
	.dwattr $C$DW$2, DW_AT_high_pc(0x00)
	.dwattr $C$DW$2, DW_AT_TI_symbol_name("_TIMER2_ISR")
	.dwattr $C$DW$2, DW_AT_external
	.dwattr $C$DW$2, DW_AT_TI_begin_file("C:/TI/c2000/C2000Ware_4_00_00_00/device_support/f2837xd/common/source/F2837xD_DefaultISR.c")
	.dwattr $C$DW$2, DW_AT_TI_begin_line(0x45)
	.dwattr $C$DW$2, DW_AT_TI_begin_column(0x10)
	.dwattr $C$DW$2, DW_AT_TI_interrupt
	.dwattr $C$DW$2, DW_AT_TI_max_frame_size(-6)
	.dwpsn	file "C:/TI/c2000/C2000Ware_4_00_00_00/device_support/f2837xd/common/source/F2837xD_DefaultISR.c",line 70,column 1,is_stmt,address _TIMER2_ISR,isa 0

	.dwfde $C$DW$CIE, _TIMER2_ISR
;----------------------------------------------------------------------
;  69 | interrupt void TIMER2_ISR(void)                                        
;  71 | //                                                                     
;  72 | // Insert ISR Code here                                                
;  73 | //                                                                     
;  75 | //                                                                     
;  76 | // Next two lines for debug only to halt the processor here            
;  77 | // Remove after inserting ISR Code                                     
;  78 | //                                                                     
;----------------------------------------------------------------------

;***************************************************************
;* FNAME: _TIMER2_ISR                   FR SIZE:   4           *
;*                                                             *
;* FUNCTION ENVIRONMENT                                        *
;*                                                             *
;* FUNCTION PROPERTIES                                         *
;*                            0 Parameter,  0 Auto,  4 SOE     *
;***************************************************************

_TIMER2_ISR:
	.dwcfi	cfa_offset, -2
	.dwcfi	save_reg_to_mem, 26, 0
        ASP       ; [CPU_ALU] 
        PUSH      RB                    ; [CPU_FPU] 
	.dwcfi	save_reg_to_mem, 74, 4
	.dwcfi	cfa_offset, -4
        MOV32     *SP++,STF             ; [CPU_FPU] 
	.dwcfi	save_reg_to_mem, 40, 6
	.dwcfi	cfa_offset, -6
        SETFLG    RNDF32=1, RNDF64=1    ; [CPU_FPU] 
        CLRC      PAGE0,OVM             ; [CPU_ALU] 
        CLRC      AMODE                 ; [CPU_ALU] 
	.dwpsn	file "C:/TI/c2000/C2000Ware_4_00_00_00/device_support/f2837xd/common/source/F2837xD_DefaultISR.c",line 79,column 5,is_stmt,isa 0
;----------------------------------------------------------------------
;  79 | asm ("      ESTOP0");                                                  
;----------------------------------------------------------------------
      ESTOP0
$C$L2:    
	.dwpsn	file "C:/TI/c2000/C2000Ware_4_00_00_00/device_support/f2837xd/common/source/F2837xD_DefaultISR.c",line 80,column 5,is_stmt,isa 0
;----------------------------------------------------------------------
;  80 | for(;;);                                                               
;----------------------------------------------------------------------
        B         $C$L2,UNC             ; [CPU_ALU] |80| 
        ; branch occurs ; [] |80| 
	.dwattr $C$DW$2, DW_AT_TI_end_file("C:/TI/c2000/C2000Ware_4_00_00_00/device_support/f2837xd/common/source/F2837xD_DefaultISR.c")
	.dwattr $C$DW$2, DW_AT_TI_end_line(0x51)
	.dwattr $C$DW$2, DW_AT_TI_end_column(0x01)
	.dwendentry
	.dwendtag $C$DW$2

	.sect	".text:retain"
	.retain
	.retainrefs
	.global	_DATALOG_ISR

$C$DW$3	.dwtag  DW_TAG_subprogram
	.dwattr $C$DW$3, DW_AT_name("DATALOG_ISR")
	.dwattr $C$DW$3, DW_AT_low_pc(_DATALOG_ISR)
	.dwattr $C$DW$3, DW_AT_high_pc(0x00)
	.dwattr $C$DW$3, DW_AT_TI_symbol_name("_DATALOG_ISR")
	.dwattr $C$DW$3, DW_AT_external
	.dwattr $C$DW$3, DW_AT_TI_begin_file("C:/TI/c2000/C2000Ware_4_00_00_00/device_support/f2837xd/common/source/F2837xD_DefaultISR.c")
	.dwattr $C$DW$3, DW_AT_TI_begin_line(0x56)
	.dwattr $C$DW$3, DW_AT_TI_begin_column(0x10)
	.dwattr $C$DW$3, DW_AT_TI_interrupt
	.dwattr $C$DW$3, DW_AT_TI_max_frame_size(-6)
	.dwpsn	file "C:/TI/c2000/C2000Ware_4_00_00_00/device_support/f2837xd/common/source/F2837xD_DefaultISR.c",line 87,column 1,is_stmt,address _DATALOG_ISR,isa 0

	.dwfde $C$DW$CIE, _DATALOG_ISR
;----------------------------------------------------------------------
;  86 | interrupt void DATALOG_ISR(void)                                       
;  88 | //                                                                     
;  89 | // Insert ISR Code here                                                
;  90 | //                                                                     
;  92 | //                                                                     
;  93 | // Next two lines for debug only to halt the processor here            
;  94 | // Remove after inserting ISR Code                                     
;  95 | //                                                                     
;----------------------------------------------------------------------

;***************************************************************
;* FNAME: _DATALOG_ISR                  FR SIZE:   4           *
;*                                                             *
;* FUNCTION ENVIRONMENT                                        *
;*                                                             *
;* FUNCTION PROPERTIES                                         *
;*                            0 Parameter,  0 Auto,  4 SOE     *
;***************************************************************

_DATALOG_ISR:
	.dwcfi	cfa_offset, -2
	.dwcfi	save_reg_to_mem, 26, 0
        ASP       ; [CPU_ALU] 
        PUSH      RB                    ; [CPU_FPU] 
	.dwcfi	save_reg_to_mem, 74, 4
	.dwcfi	cfa_offset, -4
        MOV32     *SP++,STF             ; [CPU_FPU] 
	.dwcfi	save_reg_to_mem, 40, 6
	.dwcfi	cfa_offset, -6
        SETFLG    RNDF32=1, RNDF64=1    ; [CPU_FPU] 
        CLRC      PAGE0,OVM             ; [CPU_ALU] 
        CLRC      AMODE                 ; [CPU_ALU] 
	.dwpsn	file "C:/TI/c2000/C2000Ware_4_00_00_00/device_support/f2837xd/common/source/F2837xD_DefaultISR.c",line 96,column 5,is_stmt,isa 0
;----------------------------------------------------------------------
;  96 | asm ("      ESTOP0");                                                  
;----------------------------------------------------------------------
      ESTOP0
$C$L3:    
	.dwpsn	file "C:/TI/c2000/C2000Ware_4_00_00_00/device_support/f2837xd/common/source/F2837xD_DefaultISR.c",line 97,column 5,is_stmt,isa 0
;----------------------------------------------------------------------
;  97 | for(;;);                                                               
;----------------------------------------------------------------------
        B         $C$L3,UNC             ; [CPU_ALU] |97| 
        ; branch occurs ; [] |97| 
	.dwattr $C$DW$3, DW_AT_TI_end_file("C:/TI/c2000/C2000Ware_4_00_00_00/device_support/f2837xd/common/source/F2837xD_DefaultISR.c")
	.dwattr $C$DW$3, DW_AT_TI_end_line(0x62)
	.dwattr $C$DW$3, DW_AT_TI_end_column(0x01)
	.dwendentry
	.dwendtag $C$DW$3

	.sect	".text:retain"
	.retain
	.retainrefs
	.global	_RTOS_ISR

$C$DW$4	.dwtag  DW_TAG_subprogram
	.dwattr $C$DW$4, DW_AT_name("RTOS_ISR")
	.dwattr $C$DW$4, DW_AT_low_pc(_RTOS_ISR)
	.dwattr $C$DW$4, DW_AT_high_pc(0x00)
	.dwattr $C$DW$4, DW_AT_TI_symbol_name("_RTOS_ISR")
	.dwattr $C$DW$4, DW_AT_external
	.dwattr $C$DW$4, DW_AT_TI_begin_file("C:/TI/c2000/C2000Ware_4_00_00_00/device_support/f2837xd/common/source/F2837xD_DefaultISR.c")
	.dwattr $C$DW$4, DW_AT_TI_begin_line(0x67)
	.dwattr $C$DW$4, DW_AT_TI_begin_column(0x10)
	.dwattr $C$DW$4, DW_AT_TI_interrupt
	.dwattr $C$DW$4, DW_AT_TI_max_frame_size(-6)
	.dwpsn	file "C:/TI/c2000/C2000Ware_4_00_00_00/device_support/f2837xd/common/source/F2837xD_DefaultISR.c",line 104,column 1,is_stmt,address _RTOS_ISR,isa 0

	.dwfde $C$DW$CIE, _RTOS_ISR
;----------------------------------------------------------------------
; 103 | interrupt void RTOS_ISR(void)                                          
; 105 | //                                                                     
; 106 | // Insert ISR Code here                                                
; 107 | //                                                                     
; 109 | //                                                                     
; 110 | // Next two lines for debug only to halt the processor here            
; 111 | // Remove after inserting ISR Code                                     
; 112 | //                                                                     
;----------------------------------------------------------------------

;***************************************************************
;* FNAME: _RTOS_ISR                     FR SIZE:   4           *
;*                                                             *
;* FUNCTION ENVIRONMENT                                        *
;*                                                             *
;* FUNCTION PROPERTIES                                         *
;*                            0 Parameter,  0 Auto,  4 SOE     *
;***************************************************************

_RTOS_ISR:
	.dwcfi	cfa_offset, -2
	.dwcfi	save_reg_to_mem, 26, 0
        ASP       ; [CPU_ALU] 
        PUSH      RB                    ; [CPU_FPU] 
	.dwcfi	save_reg_to_mem, 74, 4
	.dwcfi	cfa_offset, -4
        MOV32     *SP++,STF             ; [CPU_FPU] 
	.dwcfi	save_reg_to_mem, 40, 6
	.dwcfi	cfa_offset, -6
        SETFLG    RNDF32=1, RNDF64=1    ; [CPU_FPU] 
        CLRC      PAGE0,OVM             ; [CPU_ALU] 
        CLRC      AMODE                 ; [CPU_ALU] 
	.dwpsn	file "C:/TI/c2000/C2000Ware_4_00_00_00/device_support/f2837xd/common/source/F2837xD_DefaultISR.c",line 113,column 5,is_stmt,isa 0
;----------------------------------------------------------------------
; 113 | asm ("      ESTOP0");                                                  
;----------------------------------------------------------------------
      ESTOP0
$C$L4:    
	.dwpsn	file "C:/TI/c2000/C2000Ware_4_00_00_00/device_support/f2837xd/common/source/F2837xD_DefaultISR.c",line 114,column 5,is_stmt,isa 0
;----------------------------------------------------------------------
; 114 | for(;;);                                                               
;----------------------------------------------------------------------
        B         $C$L4,UNC             ; [CPU_ALU] |114| 
        ; branch occurs ; [] |114| 
	.dwattr $C$DW$4, DW_AT_TI_end_file("C:/TI/c2000/C2000Ware_4_00_00_00/device_support/f2837xd/common/source/F2837xD_DefaultISR.c")
	.dwattr $C$DW$4, DW_AT_TI_end_line(0x73)
	.dwattr $C$DW$4, DW_AT_TI_end_column(0x01)
	.dwendentry
	.dwendtag $C$DW$4

	.sect	".text:retain"
	.retain
	.retainrefs
	.global	_EMU_ISR

$C$DW$5	.dwtag  DW_TAG_subprogram
	.dwattr $C$DW$5, DW_AT_name("EMU_ISR")
	.dwattr $C$DW$5, DW_AT_low_pc(_EMU_ISR)
	.dwattr $C$DW$5, DW_AT_high_pc(0x00)
	.dwattr $C$DW$5, DW_AT_TI_symbol_name("_EMU_ISR")
	.dwattr $C$DW$5, DW_AT_external
	.dwattr $C$DW$5, DW_AT_TI_begin_file("C:/TI/c2000/C2000Ware_4_00_00_00/device_support/f2837xd/common/source/F2837xD_DefaultISR.c")
	.dwattr $C$DW$5, DW_AT_TI_begin_line(0x78)
	.dwattr $C$DW$5, DW_AT_TI_begin_column(0x10)
	.dwattr $C$DW$5, DW_AT_TI_interrupt
	.dwattr $C$DW$5, DW_AT_TI_max_frame_size(-6)
	.dwpsn	file "C:/TI/c2000/C2000Ware_4_00_00_00/device_support/f2837xd/common/source/F2837xD_DefaultISR.c",line 121,column 1,is_stmt,address _EMU_ISR,isa 0

	.dwfde $C$DW$CIE, _EMU_ISR
;----------------------------------------------------------------------
; 120 | interrupt void EMU_ISR(void)                                           
; 122 | //                                                                     
; 123 | // Insert ISR Code here                                                
; 124 | //                                                                     
; 126 | //                                                                     
; 127 | // Next two lines for debug only to halt the processor here            
; 128 | // Remove after inserting ISR Code                                     
; 129 | //                                                                     
;----------------------------------------------------------------------

;***************************************************************
;* FNAME: _EMU_ISR                      FR SIZE:   4           *
;*                                                             *
;* FUNCTION ENVIRONMENT                                        *
;*                                                             *
;* FUNCTION PROPERTIES                                         *
;*                            0 Parameter,  0 Auto,  4 SOE     *
;***************************************************************

_EMU_ISR:
	.dwcfi	cfa_offset, -2
	.dwcfi	save_reg_to_mem, 26, 0
        ASP       ; [CPU_ALU] 
        PUSH      RB                    ; [CPU_FPU] 
	.dwcfi	save_reg_to_mem, 74, 4
	.dwcfi	cfa_offset, -4
        MOV32     *SP++,STF             ; [CPU_FPU] 
	.dwcfi	save_reg_to_mem, 40, 6
	.dwcfi	cfa_offset, -6
        SETFLG    RNDF32=1, RNDF64=1    ; [CPU_FPU] 
        CLRC      PAGE0,OVM             ; [CPU_ALU] 
        CLRC      AMODE                 ; [CPU_ALU] 
	.dwpsn	file "C:/TI/c2000/C2000Ware_4_00_00_00/device_support/f2837xd/common/source/F2837xD_DefaultISR.c",line 130,column 5,is_stmt,isa 0
;----------------------------------------------------------------------
; 130 | asm ("      ESTOP0");                                                  
;----------------------------------------------------------------------
      ESTOP0
$C$L5:    
	.dwpsn	file "C:/TI/c2000/C2000Ware_4_00_00_00/device_support/f2837xd/common/source/F2837xD_DefaultISR.c",line 131,column 5,is_stmt,isa 0
;----------------------------------------------------------------------
; 131 | for(;;);                                                               
;----------------------------------------------------------------------
        B         $C$L5,UNC             ; [CPU_ALU] |131| 
        ; branch occurs ; [] |131| 
	.dwattr $C$DW$5, DW_AT_TI_end_file("C:/TI/c2000/C2000Ware_4_00_00_00/device_support/f2837xd/common/source/F2837xD_DefaultISR.c")
	.dwattr $C$DW$5, DW_AT_TI_end_line(0x84)
	.dwattr $C$DW$5, DW_AT_TI_end_column(0x01)
	.dwendentry
	.dwendtag $C$DW$5

	.sect	".text:retain"
	.retain
	.retainrefs
	.global	_NMI_ISR

$C$DW$6	.dwtag  DW_TAG_subprogram
	.dwattr $C$DW$6, DW_AT_name("NMI_ISR")
	.dwattr $C$DW$6, DW_AT_low_pc(_NMI_ISR)
	.dwattr $C$DW$6, DW_AT_high_pc(0x00)
	.dwattr $C$DW$6, DW_AT_TI_symbol_name("_NMI_ISR")
	.dwattr $C$DW$6, DW_AT_external
	.dwattr $C$DW$6, DW_AT_TI_begin_file("C:/TI/c2000/C2000Ware_4_00_00_00/device_support/f2837xd/common/source/F2837xD_DefaultISR.c")
	.dwattr $C$DW$6, DW_AT_TI_begin_line(0x89)
	.dwattr $C$DW$6, DW_AT_TI_begin_column(0x10)
	.dwattr $C$DW$6, DW_AT_TI_interrupt
	.dwattr $C$DW$6, DW_AT_TI_max_frame_size(-6)
	.dwpsn	file "C:/TI/c2000/C2000Ware_4_00_00_00/device_support/f2837xd/common/source/F2837xD_DefaultISR.c",line 138,column 1,is_stmt,address _NMI_ISR,isa 0

	.dwfde $C$DW$CIE, _NMI_ISR
;----------------------------------------------------------------------
; 137 | interrupt void NMI_ISR(void)                                           
; 139 | //                                                                     
; 140 | // Insert ISR Code here                                                
; 141 | //                                                                     
; 143 | //                                                                     
; 144 | // Next two lines for debug only to halt the processor here            
; 145 | // Remove after inserting ISR Code                                     
; 146 | //                                                                     
;----------------------------------------------------------------------

;***************************************************************
;* FNAME: _NMI_ISR                      FR SIZE:   4           *
;*                                                             *
;* FUNCTION ENVIRONMENT                                        *
;*                                                             *
;* FUNCTION PROPERTIES                                         *
;*                            0 Parameter,  0 Auto,  4 SOE     *
;***************************************************************

_NMI_ISR:
	.dwcfi	cfa_offset, -2
	.dwcfi	save_reg_to_mem, 26, 0
        ASP       ; [CPU_ALU] 
        PUSH      RB                    ; [CPU_FPU] 
	.dwcfi	save_reg_to_mem, 74, 4
	.dwcfi	cfa_offset, -4
        MOV32     *SP++,STF             ; [CPU_FPU] 
	.dwcfi	save_reg_to_mem, 40, 6
	.dwcfi	cfa_offset, -6
        SETFLG    RNDF32=1, RNDF64=1    ; [CPU_FPU] 
        CLRC      PAGE0,OVM             ; [CPU_ALU] 
        CLRC      AMODE                 ; [CPU_ALU] 
	.dwpsn	file "C:/TI/c2000/C2000Ware_4_00_00_00/device_support/f2837xd/common/source/F2837xD_DefaultISR.c",line 147,column 5,is_stmt,isa 0
;----------------------------------------------------------------------
; 147 | asm ("      ESTOP0");                                                  
;----------------------------------------------------------------------
      ESTOP0
$C$L6:    
	.dwpsn	file "C:/TI/c2000/C2000Ware_4_00_00_00/device_support/f2837xd/common/source/F2837xD_DefaultISR.c",line 148,column 5,is_stmt,isa 0
;----------------------------------------------------------------------
; 148 | for(;;);                                                               
;----------------------------------------------------------------------
        B         $C$L6,UNC             ; [CPU_ALU] |148| 
        ; branch occurs ; [] |148| 
	.dwattr $C$DW$6, DW_AT_TI_end_file("C:/TI/c2000/C2000Ware_4_00_00_00/device_support/f2837xd/common/source/F2837xD_DefaultISR.c")
	.dwattr $C$DW$6, DW_AT_TI_end_line(0x95)
	.dwattr $C$DW$6, DW_AT_TI_end_column(0x01)
	.dwendentry
	.dwendtag $C$DW$6

	.sect	".text:retain"
	.retain
	.retainrefs
	.global	_ILLEGAL_ISR

$C$DW$7	.dwtag  DW_TAG_subprogram
	.dwattr $C$DW$7, DW_AT_name("ILLEGAL_ISR")
	.dwattr $C$DW$7, DW_AT_low_pc(_ILLEGAL_ISR)
	.dwattr $C$DW$7, DW_AT_high_pc(0x00)
	.dwattr $C$DW$7, DW_AT_TI_symbol_name("_ILLEGAL_ISR")
	.dwattr $C$DW$7, DW_AT_external
	.dwattr $C$DW$7, DW_AT_TI_begin_file("C:/TI/c2000/C2000Ware_4_00_00_00/device_support/f2837xd/common/source/F2837xD_DefaultISR.c")
	.dwattr $C$DW$7, DW_AT_TI_begin_line(0x9a)
	.dwattr $C$DW$7, DW_AT_TI_begin_column(0x10)
	.dwattr $C$DW$7, DW_AT_TI_interrupt
	.dwattr $C$DW$7, DW_AT_TI_max_frame_size(-6)
	.dwpsn	file "C:/TI/c2000/C2000Ware_4_00_00_00/device_support/f2837xd/common/source/F2837xD_DefaultISR.c",line 155,column 1,is_stmt,address _ILLEGAL_ISR,isa 0

	.dwfde $C$DW$CIE, _ILLEGAL_ISR
;----------------------------------------------------------------------
; 154 | interrupt void ILLEGAL_ISR(void)                                       
; 156 | //                                                                     
; 157 | // Insert ISR Code here                                                
; 158 | //                                                                     
; 160 | //                                                                     
; 161 | // Next two lines for debug only to halt the processor here            
; 162 | // Remove after inserting ISR Code                                     
; 163 | //                                                                     
;----------------------------------------------------------------------

;***************************************************************
;* FNAME: _ILLEGAL_ISR                  FR SIZE:   4           *
;*                                                             *
;* FUNCTION ENVIRONMENT                                        *
;*                                                             *
;* FUNCTION PROPERTIES                                         *
;*                            0 Parameter,  0 Auto,  4 SOE     *
;***************************************************************

_ILLEGAL_ISR:
	.dwcfi	cfa_offset, -2
	.dwcfi	save_reg_to_mem, 26, 0
        ASP       ; [CPU_ALU] 
        PUSH      RB                    ; [CPU_FPU] 
	.dwcfi	save_reg_to_mem, 74, 4
	.dwcfi	cfa_offset, -4
        MOV32     *SP++,STF             ; [CPU_FPU] 
	.dwcfi	save_reg_to_mem, 40, 6
	.dwcfi	cfa_offset, -6
        SETFLG    RNDF32=1, RNDF64=1    ; [CPU_FPU] 
        CLRC      PAGE0,OVM             ; [CPU_ALU] 
        CLRC      AMODE                 ; [CPU_ALU] 
	.dwpsn	file "C:/TI/c2000/C2000Ware_4_00_00_00/device_support/f2837xd/common/source/F2837xD_DefaultISR.c",line 164,column 5,is_stmt,isa 0
;----------------------------------------------------------------------
; 164 | asm ("      ESTOP0");                                                  
;----------------------------------------------------------------------
      ESTOP0
$C$L7:    
	.dwpsn	file "C:/TI/c2000/C2000Ware_4_00_00_00/device_support/f2837xd/common/source/F2837xD_DefaultISR.c",line 165,column 5,is_stmt,isa 0
;----------------------------------------------------------------------
; 165 | for(;;);                                                               
;----------------------------------------------------------------------
        B         $C$L7,UNC             ; [CPU_ALU] |165| 
        ; branch occurs ; [] |165| 
	.dwattr $C$DW$7, DW_AT_TI_end_file("C:/TI/c2000/C2000Ware_4_00_00_00/device_support/f2837xd/common/source/F2837xD_DefaultISR.c")
	.dwattr $C$DW$7, DW_AT_TI_end_line(0xa6)
	.dwattr $C$DW$7, DW_AT_TI_end_column(0x01)
	.dwendentry
	.dwendtag $C$DW$7

	.sect	".text:retain"
	.retain
	.retainrefs
	.global	_USER1_ISR

$C$DW$8	.dwtag  DW_TAG_subprogram
	.dwattr $C$DW$8, DW_AT_name("USER1_ISR")
	.dwattr $C$DW$8, DW_AT_low_pc(_USER1_ISR)
	.dwattr $C$DW$8, DW_AT_high_pc(0x00)
	.dwattr $C$DW$8, DW_AT_TI_symbol_name("_USER1_ISR")
	.dwattr $C$DW$8, DW_AT_external
	.dwattr $C$DW$8, DW_AT_TI_begin_file("C:/TI/c2000/C2000Ware_4_00_00_00/device_support/f2837xd/common/source/F2837xD_DefaultISR.c")
	.dwattr $C$DW$8, DW_AT_TI_begin_line(0xab)
	.dwattr $C$DW$8, DW_AT_TI_begin_column(0x10)
	.dwattr $C$DW$8, DW_AT_TI_interrupt
	.dwattr $C$DW$8, DW_AT_TI_max_frame_size(-6)
	.dwpsn	file "C:/TI/c2000/C2000Ware_4_00_00_00/device_support/f2837xd/common/source/F2837xD_DefaultISR.c",line 172,column 1,is_stmt,address _USER1_ISR,isa 0

	.dwfde $C$DW$CIE, _USER1_ISR
;----------------------------------------------------------------------
; 171 | interrupt void USER1_ISR(void)                                         
; 173 | //                                                                     
; 174 | // Insert ISR Code here                                                
; 175 | //                                                                     
; 177 | //                                                                     
; 178 | // Next two lines for debug only to halt the processor here            
; 179 | // Remove after inserting ISR Code                                     
; 180 | //                                                                     
;----------------------------------------------------------------------

;***************************************************************
;* FNAME: _USER1_ISR                    FR SIZE:   4           *
;*                                                             *
;* FUNCTION ENVIRONMENT                                        *
;*                                                             *
;* FUNCTION PROPERTIES                                         *
;*                            0 Parameter,  0 Auto,  4 SOE     *
;***************************************************************

_USER1_ISR:
	.dwcfi	cfa_offset, -2
	.dwcfi	save_reg_to_mem, 26, 0
        ASP       ; [CPU_ALU] 
        PUSH      RB                    ; [CPU_FPU] 
	.dwcfi	save_reg_to_mem, 74, 4
	.dwcfi	cfa_offset, -4
        MOV32     *SP++,STF             ; [CPU_FPU] 
	.dwcfi	save_reg_to_mem, 40, 6
	.dwcfi	cfa_offset, -6
        SETFLG    RNDF32=1, RNDF64=1    ; [CPU_FPU] 
        CLRC      PAGE0,OVM             ; [CPU_ALU] 
        CLRC      AMODE                 ; [CPU_ALU] 
	.dwpsn	file "C:/TI/c2000/C2000Ware_4_00_00_00/device_support/f2837xd/common/source/F2837xD_DefaultISR.c",line 181,column 5,is_stmt,isa 0
;----------------------------------------------------------------------
; 181 | asm ("      ESTOP0");                                                  
;----------------------------------------------------------------------
      ESTOP0
$C$L8:    
	.dwpsn	file "C:/TI/c2000/C2000Ware_4_00_00_00/device_support/f2837xd/common/source/F2837xD_DefaultISR.c",line 182,column 5,is_stmt,isa 0
;----------------------------------------------------------------------
; 182 | for(;;);                                                               
;----------------------------------------------------------------------
        B         $C$L8,UNC             ; [CPU_ALU] |182| 
        ; branch occurs ; [] |182| 
	.dwattr $C$DW$8, DW_AT_TI_end_file("C:/TI/c2000/C2000Ware_4_00_00_00/device_support/f2837xd/common/source/F2837xD_DefaultISR.c")
	.dwattr $C$DW$8, DW_AT_TI_end_line(0xb7)
	.dwattr $C$DW$8, DW_AT_TI_end_column(0x01)
	.dwendentry
	.dwendtag $C$DW$8

	.sect	".text:retain"
	.retain
	.retainrefs
	.global	_USER2_ISR

$C$DW$9	.dwtag  DW_TAG_subprogram
	.dwattr $C$DW$9, DW_AT_name("USER2_ISR")
	.dwattr $C$DW$9, DW_AT_low_pc(_USER2_ISR)
	.dwattr $C$DW$9, DW_AT_high_pc(0x00)
	.dwattr $C$DW$9, DW_AT_TI_symbol_name("_USER2_ISR")
	.dwattr $C$DW$9, DW_AT_external
	.dwattr $C$DW$9, DW_AT_TI_begin_file("C:/TI/c2000/C2000Ware_4_00_00_00/device_support/f2837xd/common/source/F2837xD_DefaultISR.c")
	.dwattr $C$DW$9, DW_AT_TI_begin_line(0xbc)
	.dwattr $C$DW$9, DW_AT_TI_begin_column(0x10)
	.dwattr $C$DW$9, DW_AT_TI_interrupt
	.dwattr $C$DW$9, DW_AT_TI_max_frame_size(-6)
	.dwpsn	file "C:/TI/c2000/C2000Ware_4_00_00_00/device_support/f2837xd/common/source/F2837xD_DefaultISR.c",line 189,column 1,is_stmt,address _USER2_ISR,isa 0

	.dwfde $C$DW$CIE, _USER2_ISR
;----------------------------------------------------------------------
; 188 | interrupt void USER2_ISR(void)                                         
; 190 | //                                                                     
; 191 | // Insert ISR Code here                                                
; 192 | //                                                                     
; 194 | //                                                                     
; 195 | // Next two lines for debug only to halt the processor here            
; 196 | // Remove after inserting ISR Code                                     
; 197 | //                                                                     
;----------------------------------------------------------------------

;***************************************************************
;* FNAME: _USER2_ISR                    FR SIZE:   4           *
;*                                                             *
;* FUNCTION ENVIRONMENT                                        *
;*                                                             *
;* FUNCTION PROPERTIES                                         *
;*                            0 Parameter,  0 Auto,  4 SOE     *
;***************************************************************

_USER2_ISR:
	.dwcfi	cfa_offset, -2
	.dwcfi	save_reg_to_mem, 26, 0
        ASP       ; [CPU_ALU] 
        PUSH      RB                    ; [CPU_FPU] 
	.dwcfi	save_reg_to_mem, 74, 4
	.dwcfi	cfa_offset, -4
        MOV32     *SP++,STF             ; [CPU_FPU] 
	.dwcfi	save_reg_to_mem, 40, 6
	.dwcfi	cfa_offset, -6
        SETFLG    RNDF32=1, RNDF64=1    ; [CPU_FPU] 
        CLRC      PAGE0,OVM             ; [CPU_ALU] 
        CLRC      AMODE                 ; [CPU_ALU] 
	.dwpsn	file "C:/TI/c2000/C2000Ware_4_00_00_00/device_support/f2837xd/common/source/F2837xD_DefaultISR.c",line 198,column 5,is_stmt,isa 0
;----------------------------------------------------------------------
; 198 | asm ("      ESTOP0");                                                  
;----------------------------------------------------------------------
      ESTOP0
$C$L9:    
	.dwpsn	file "C:/TI/c2000/C2000Ware_4_00_00_00/device_support/f2837xd/common/source/F2837xD_DefaultISR.c",line 199,column 5,is_stmt,isa 0
;----------------------------------------------------------------------
; 199 | for(;;);                                                               
;----------------------------------------------------------------------
        B         $C$L9,UNC             ; [CPU_ALU] |199| 
        ; branch occurs ; [] |199| 
	.dwattr $C$DW$9, DW_AT_TI_end_file("C:/TI/c2000/C2000Ware_4_00_00_00/device_support/f2837xd/common/source/F2837xD_DefaultISR.c")
	.dwattr $C$DW$9, DW_AT_TI_end_line(0xc8)
	.dwattr $C$DW$9, DW_AT_TI_end_column(0x01)
	.dwendentry
	.dwendtag $C$DW$9

	.sect	".text:retain"
	.retain
	.retainrefs
	.global	_USER3_ISR

$C$DW$10	.dwtag  DW_TAG_subprogram
	.dwattr $C$DW$10, DW_AT_name("USER3_ISR")
	.dwattr $C$DW$10, DW_AT_low_pc(_USER3_ISR)
	.dwattr $C$DW$10, DW_AT_high_pc(0x00)
	.dwattr $C$DW$10, DW_AT_TI_symbol_name("_USER3_ISR")
	.dwattr $C$DW$10, DW_AT_external
	.dwattr $C$DW$10, DW_AT_TI_begin_file("C:/TI/c2000/C2000Ware_4_00_00_00/device_support/f2837xd/common/source/F2837xD_DefaultISR.c")
	.dwattr $C$DW$10, DW_AT_TI_begin_line(0xcd)
	.dwattr $C$DW$10, DW_AT_TI_begin_column(0x10)
	.dwattr $C$DW$10, DW_AT_TI_interrupt
	.dwattr $C$DW$10, DW_AT_TI_max_frame_size(-6)
	.dwpsn	file "C:/TI/c2000/C2000Ware_4_00_00_00/device_support/f2837xd/common/source/F2837xD_DefaultISR.c",line 206,column 1,is_stmt,address _USER3_ISR,isa 0

	.dwfde $C$DW$CIE, _USER3_ISR
;----------------------------------------------------------------------
; 205 | interrupt void USER3_ISR(void)                                         
; 207 | //                                                                     
; 208 | // Insert ISR Code here                                                
; 209 | //                                                                     
; 211 | //                                                                     
; 212 | // Next two lines for debug only to halt the processor here            
; 213 | // Remove after inserting ISR Code                                     
; 214 | //                                                                     
;----------------------------------------------------------------------

;***************************************************************
;* FNAME: _USER3_ISR                    FR SIZE:   4           *
;*                                                             *
;* FUNCTION ENVIRONMENT                                        *
;*                                                             *
;* FUNCTION PROPERTIES                                         *
;*                            0 Parameter,  0 Auto,  4 SOE     *
;***************************************************************

_USER3_ISR:
	.dwcfi	cfa_offset, -2
	.dwcfi	save_reg_to_mem, 26, 0
        ASP       ; [CPU_ALU] 
        PUSH      RB                    ; [CPU_FPU] 
	.dwcfi	save_reg_to_mem, 74, 4
	.dwcfi	cfa_offset, -4
        MOV32     *SP++,STF             ; [CPU_FPU] 
	.dwcfi	save_reg_to_mem, 40, 6
	.dwcfi	cfa_offset, -6
        SETFLG    RNDF32=1, RNDF64=1    ; [CPU_FPU] 
        CLRC      PAGE0,OVM             ; [CPU_ALU] 
        CLRC      AMODE                 ; [CPU_ALU] 
	.dwpsn	file "C:/TI/c2000/C2000Ware_4_00_00_00/device_support/f2837xd/common/source/F2837xD_DefaultISR.c",line 215,column 5,is_stmt,isa 0
;----------------------------------------------------------------------
; 215 | asm ("      ESTOP0");                                                  
;----------------------------------------------------------------------
      ESTOP0
$C$L10:    
	.dwpsn	file "C:/TI/c2000/C2000Ware_4_00_00_00/device_support/f2837xd/common/source/F2837xD_DefaultISR.c",line 216,column 5,is_stmt,isa 0
;----------------------------------------------------------------------
; 216 | for(;;);                                                               
;----------------------------------------------------------------------
        B         $C$L10,UNC            ; [CPU_ALU] |216| 
        ; branch occurs ; [] |216| 
	.dwattr $C$DW$10, DW_AT_TI_end_file("C:/TI/c2000/C2000Ware_4_00_00_00/device_support/f2837xd/common/source/F2837xD_DefaultISR.c")
	.dwattr $C$DW$10, DW_AT_TI_end_line(0xd9)
	.dwattr $C$DW$10, DW_AT_TI_end_column(0x01)
	.dwendentry
	.dwendtag $C$DW$10

	.sect	".text:retain"
	.retain
	.retainrefs
	.global	_USER4_ISR

$C$DW$11	.dwtag  DW_TAG_subprogram
	.dwattr $C$DW$11, DW_AT_name("USER4_ISR")
	.dwattr $C$DW$11, DW_AT_low_pc(_USER4_ISR)
	.dwattr $C$DW$11, DW_AT_high_pc(0x00)
	.dwattr $C$DW$11, DW_AT_TI_symbol_name("_USER4_ISR")
	.dwattr $C$DW$11, DW_AT_external
	.dwattr $C$DW$11, DW_AT_TI_begin_file("C:/TI/c2000/C2000Ware_4_00_00_00/device_support/f2837xd/common/source/F2837xD_DefaultISR.c")
	.dwattr $C$DW$11, DW_AT_TI_begin_line(0xde)
	.dwattr $C$DW$11, DW_AT_TI_begin_column(0x10)
	.dwattr $C$DW$11, DW_AT_TI_interrupt
	.dwattr $C$DW$11, DW_AT_TI_max_frame_size(-6)
	.dwpsn	file "C:/TI/c2000/C2000Ware_4_00_00_00/device_support/f2837xd/common/source/F2837xD_DefaultISR.c",line 223,column 1,is_stmt,address _USER4_ISR,isa 0

	.dwfde $C$DW$CIE, _USER4_ISR
;----------------------------------------------------------------------
; 222 | interrupt void USER4_ISR(void)                                         
; 224 | //                                                                     
; 225 | // Insert ISR Code here                                                
; 226 | //                                                                     
; 228 | //                                                                     
; 229 | // Next two lines for debug only to halt the processor here            
; 230 | // Remove after inserting ISR Code                                     
; 231 | //                                                                     
;----------------------------------------------------------------------

;***************************************************************
;* FNAME: _USER4_ISR                    FR SIZE:   4           *
;*                                                             *
;* FUNCTION ENVIRONMENT                                        *
;*                                                             *
;* FUNCTION PROPERTIES                                         *
;*                            0 Parameter,  0 Auto,  4 SOE     *
;***************************************************************

_USER4_ISR:
	.dwcfi	cfa_offset, -2
	.dwcfi	save_reg_to_mem, 26, 0
        ASP       ; [CPU_ALU] 
        PUSH      RB                    ; [CPU_FPU] 
	.dwcfi	save_reg_to_mem, 74, 4
	.dwcfi	cfa_offset, -4
        MOV32     *SP++,STF             ; [CPU_FPU] 
	.dwcfi	save_reg_to_mem, 40, 6
	.dwcfi	cfa_offset, -6
        SETFLG    RNDF32=1, RNDF64=1    ; [CPU_FPU] 
        CLRC      PAGE0,OVM             ; [CPU_ALU] 
        CLRC      AMODE                 ; [CPU_ALU] 
	.dwpsn	file "C:/TI/c2000/C2000Ware_4_00_00_00/device_support/f2837xd/common/source/F2837xD_DefaultISR.c",line 232,column 5,is_stmt,isa 0
;----------------------------------------------------------------------
; 232 | asm ("      ESTOP0");                                                  
;----------------------------------------------------------------------
      ESTOP0
$C$L11:    
	.dwpsn	file "C:/TI/c2000/C2000Ware_4_00_00_00/device_support/f2837xd/common/source/F2837xD_DefaultISR.c",line 233,column 5,is_stmt,isa 0
;----------------------------------------------------------------------
; 233 | for(;;);                                                               
;----------------------------------------------------------------------
        B         $C$L11,UNC            ; [CPU_ALU] |233| 
        ; branch occurs ; [] |233| 
	.dwattr $C$DW$11, DW_AT_TI_end_file("C:/TI/c2000/C2000Ware_4_00_00_00/device_support/f2837xd/common/source/F2837xD_DefaultISR.c")
	.dwattr $C$DW$11, DW_AT_TI_end_line(0xea)
	.dwattr $C$DW$11, DW_AT_TI_end_column(0x01)
	.dwendentry
	.dwendtag $C$DW$11

	.sect	".text:retain"
	.retain
	.retainrefs
	.global	_USER5_ISR

$C$DW$12	.dwtag  DW_TAG_subprogram
	.dwattr $C$DW$12, DW_AT_name("USER5_ISR")
	.dwattr $C$DW$12, DW_AT_low_pc(_USER5_ISR)
	.dwattr $C$DW$12, DW_AT_high_pc(0x00)
	.dwattr $C$DW$12, DW_AT_TI_symbol_name("_USER5_ISR")
	.dwattr $C$DW$12, DW_AT_external
	.dwattr $C$DW$12, DW_AT_TI_begin_file("C:/TI/c2000/C2000Ware_4_00_00_00/device_support/f2837xd/common/source/F2837xD_DefaultISR.c")
	.dwattr $C$DW$12, DW_AT_TI_begin_line(0xef)
	.dwattr $C$DW$12, DW_AT_TI_begin_column(0x10)
	.dwattr $C$DW$12, DW_AT_TI_interrupt
	.dwattr $C$DW$12, DW_AT_TI_max_frame_size(-6)
	.dwpsn	file "C:/TI/c2000/C2000Ware_4_00_00_00/device_support/f2837xd/common/source/F2837xD_DefaultISR.c",line 240,column 1,is_stmt,address _USER5_ISR,isa 0

	.dwfde $C$DW$CIE, _USER5_ISR
;----------------------------------------------------------------------
; 239 | interrupt void USER5_ISR(void)                                         
; 241 | //                                                                     
; 242 | // Insert ISR Code here                                                
; 243 | //                                                                     
; 245 | //                                                                     
; 246 | // Next two lines for debug only to halt the processor here            
; 247 | // Remove after inserting ISR Code                                     
; 248 | //                                                                     
;----------------------------------------------------------------------

;***************************************************************
;* FNAME: _USER5_ISR                    FR SIZE:   4           *
;*                                                             *
;* FUNCTION ENVIRONMENT                                        *
;*                                                             *
;* FUNCTION PROPERTIES                                         *
;*                            0 Parameter,  0 Auto,  4 SOE     *
;***************************************************************

_USER5_ISR:
	.dwcfi	cfa_offset, -2
	.dwcfi	save_reg_to_mem, 26, 0
        ASP       ; [CPU_ALU] 
        PUSH      RB                    ; [CPU_FPU] 
	.dwcfi	save_reg_to_mem, 74, 4
	.dwcfi	cfa_offset, -4
        MOV32     *SP++,STF             ; [CPU_FPU] 
	.dwcfi	save_reg_to_mem, 40, 6
	.dwcfi	cfa_offset, -6
        SETFLG    RNDF32=1, RNDF64=1    ; [CPU_FPU] 
        CLRC      PAGE0,OVM             ; [CPU_ALU] 
        CLRC      AMODE                 ; [CPU_ALU] 
	.dwpsn	file "C:/TI/c2000/C2000Ware_4_00_00_00/device_support/f2837xd/common/source/F2837xD_DefaultISR.c",line 249,column 5,is_stmt,isa 0
;----------------------------------------------------------------------
; 249 | asm ("      ESTOP0");                                                  
;----------------------------------------------------------------------
      ESTOP0
$C$L12:    
	.dwpsn	file "C:/TI/c2000/C2000Ware_4_00_00_00/device_support/f2837xd/common/source/F2837xD_DefaultISR.c",line 250,column 5,is_stmt,isa 0
;----------------------------------------------------------------------
; 250 | for(;;);                                                               
;----------------------------------------------------------------------
        B         $C$L12,UNC            ; [CPU_ALU] |250| 
        ; branch occurs ; [] |250| 
	.dwattr $C$DW$12, DW_AT_TI_end_file("C:/TI/c2000/C2000Ware_4_00_00_00/device_support/f2837xd/common/source/F2837xD_DefaultISR.c")
	.dwattr $C$DW$12, DW_AT_TI_end_line(0xfb)
	.dwattr $C$DW$12, DW_AT_TI_end_column(0x01)
	.dwendentry
	.dwendtag $C$DW$12

	.sect	".text:retain"
	.retain
	.retainrefs
	.global	_USER6_ISR

$C$DW$13	.dwtag  DW_TAG_subprogram
	.dwattr $C$DW$13, DW_AT_name("USER6_ISR")
	.dwattr $C$DW$13, DW_AT_low_pc(_USER6_ISR)
	.dwattr $C$DW$13, DW_AT_high_pc(0x00)
	.dwattr $C$DW$13, DW_AT_TI_symbol_name("_USER6_ISR")
	.dwattr $C$DW$13, DW_AT_external
	.dwattr $C$DW$13, DW_AT_TI_begin_file("C:/TI/c2000/C2000Ware_4_00_00_00/device_support/f2837xd/common/source/F2837xD_DefaultISR.c")
	.dwattr $C$DW$13, DW_AT_TI_begin_line(0x100)
	.dwattr $C$DW$13, DW_AT_TI_begin_column(0x10)
	.dwattr $C$DW$13, DW_AT_TI_interrupt
	.dwattr $C$DW$13, DW_AT_TI_max_frame_size(-6)
	.dwpsn	file "C:/TI/c2000/C2000Ware_4_00_00_00/device_support/f2837xd/common/source/F2837xD_DefaultISR.c",line 257,column 1,is_stmt,address _USER6_ISR,isa 0

	.dwfde $C$DW$CIE, _USER6_ISR
;----------------------------------------------------------------------
; 256 | interrupt void USER6_ISR(void)                                         
; 258 | //                                                                     
; 259 | // Insert ISR Code here                                                
; 260 | //                                                                     
; 262 | //                                                                     
; 263 | // Next two lines for debug only to halt the processor here            
; 264 | // Remove after inserting ISR Code                                     
; 265 | //                                                                     
;----------------------------------------------------------------------

;***************************************************************
;* FNAME: _USER6_ISR                    FR SIZE:   4           *
;*                                                             *
;* FUNCTION ENVIRONMENT                                        *
;*                                                             *
;* FUNCTION PROPERTIES                                         *
;*                            0 Parameter,  0 Auto,  4 SOE     *
;***************************************************************

_USER6_ISR:
	.dwcfi	cfa_offset, -2
	.dwcfi	save_reg_to_mem, 26, 0
        ASP       ; [CPU_ALU] 
        PUSH      RB                    ; [CPU_FPU] 
	.dwcfi	save_reg_to_mem, 74, 4
	.dwcfi	cfa_offset, -4
        MOV32     *SP++,STF             ; [CPU_FPU] 
	.dwcfi	save_reg_to_mem, 40, 6
	.dwcfi	cfa_offset, -6
        SETFLG    RNDF32=1, RNDF64=1    ; [CPU_FPU] 
        CLRC      PAGE0,OVM             ; [CPU_ALU] 
        CLRC      AMODE                 ; [CPU_ALU] 
	.dwpsn	file "C:/TI/c2000/C2000Ware_4_00_00_00/device_support/f2837xd/common/source/F2837xD_DefaultISR.c",line 266,column 5,is_stmt,isa 0
;----------------------------------------------------------------------
; 266 | asm ("      ESTOP0");                                                  
;----------------------------------------------------------------------
      ESTOP0
$C$L13:    
	.dwpsn	file "C:/TI/c2000/C2000Ware_4_00_00_00/device_support/f2837xd/common/source/F2837xD_DefaultISR.c",line 267,column 5,is_stmt,isa 0
;----------------------------------------------------------------------
; 267 | for(;;);                                                               
;----------------------------------------------------------------------
        B         $C$L13,UNC            ; [CPU_ALU] |267| 
        ; branch occurs ; [] |267| 
	.dwattr $C$DW$13, DW_AT_TI_end_file("C:/TI/c2000/C2000Ware_4_00_00_00/device_support/f2837xd/common/source/F2837xD_DefaultISR.c")
	.dwattr $C$DW$13, DW_AT_TI_end_line(0x10c)
	.dwattr $C$DW$13, DW_AT_TI_end_column(0x01)
	.dwendentry
	.dwendtag $C$DW$13

	.sect	".text:retain"
	.retain
	.retainrefs
	.global	_USER7_ISR

$C$DW$14	.dwtag  DW_TAG_subprogram
	.dwattr $C$DW$14, DW_AT_name("USER7_ISR")
	.dwattr $C$DW$14, DW_AT_low_pc(_USER7_ISR)
	.dwattr $C$DW$14, DW_AT_high_pc(0x00)
	.dwattr $C$DW$14, DW_AT_TI_symbol_name("_USER7_ISR")
	.dwattr $C$DW$14, DW_AT_external
	.dwattr $C$DW$14, DW_AT_TI_begin_file("C:/TI/c2000/C2000Ware_4_00_00_00/device_support/f2837xd/common/source/F2837xD_DefaultISR.c")
	.dwattr $C$DW$14, DW_AT_TI_begin_line(0x111)
	.dwattr $C$DW$14, DW_AT_TI_begin_column(0x10)
	.dwattr $C$DW$14, DW_AT_TI_interrupt
	.dwattr $C$DW$14, DW_AT_TI_max_frame_size(-6)
	.dwpsn	file "C:/TI/c2000/C2000Ware_4_00_00_00/device_support/f2837xd/common/source/F2837xD_DefaultISR.c",line 274,column 1,is_stmt,address _USER7_ISR,isa 0

	.dwfde $C$DW$CIE, _USER7_ISR
;----------------------------------------------------------------------
; 273 | interrupt void USER7_ISR(void)                                         
; 275 | //                                                                     
; 276 | // Insert ISR Code here                                                
; 277 | //                                                                     
; 279 | //                                                                     
; 280 | // Next two lines for debug only to halt the processor here            
; 281 | // Remove after inserting ISR Code                                     
; 282 | //                                                                     
;----------------------------------------------------------------------

;***************************************************************
;* FNAME: _USER7_ISR                    FR SIZE:   4           *
;*                                                             *
;* FUNCTION ENVIRONMENT                                        *
;*                                                             *
;* FUNCTION PROPERTIES                                         *
;*                            0 Parameter,  0 Auto,  4 SOE     *
;***************************************************************

_USER7_ISR:
	.dwcfi	cfa_offset, -2
	.dwcfi	save_reg_to_mem, 26, 0
        ASP       ; [CPU_ALU] 
        PUSH      RB                    ; [CPU_FPU] 
	.dwcfi	save_reg_to_mem, 74, 4
	.dwcfi	cfa_offset, -4
        MOV32     *SP++,STF             ; [CPU_FPU] 
	.dwcfi	save_reg_to_mem, 40, 6
	.dwcfi	cfa_offset, -6
        SETFLG    RNDF32=1, RNDF64=1    ; [CPU_FPU] 
        CLRC      PAGE0,OVM             ; [CPU_ALU] 
        CLRC      AMODE                 ; [CPU_ALU] 
	.dwpsn	file "C:/TI/c2000/C2000Ware_4_00_00_00/device_support/f2837xd/common/source/F2837xD_DefaultISR.c",line 283,column 5,is_stmt,isa 0
;----------------------------------------------------------------------
; 283 | asm ("      ESTOP0");                                                  
;----------------------------------------------------------------------
      ESTOP0
$C$L14:    
	.dwpsn	file "C:/TI/c2000/C2000Ware_4_00_00_00/device_support/f2837xd/common/source/F2837xD_DefaultISR.c",line 284,column 5,is_stmt,isa 0
;----------------------------------------------------------------------
; 284 | for(;;);                                                               
;----------------------------------------------------------------------
        B         $C$L14,UNC            ; [CPU_ALU] |284| 
        ; branch occurs ; [] |284| 
	.dwattr $C$DW$14, DW_AT_TI_end_file("C:/TI/c2000/C2000Ware_4_00_00_00/device_support/f2837xd/common/source/F2837xD_DefaultISR.c")
	.dwattr $C$DW$14, DW_AT_TI_end_line(0x11d)
	.dwattr $C$DW$14, DW_AT_TI_end_column(0x01)
	.dwendentry
	.dwendtag $C$DW$14

	.sect	".text:retain"
	.retain
	.retainrefs
	.global	_USER8_ISR

$C$DW$15	.dwtag  DW_TAG_subprogram
	.dwattr $C$DW$15, DW_AT_name("USER8_ISR")
	.dwattr $C$DW$15, DW_AT_low_pc(_USER8_ISR)
	.dwattr $C$DW$15, DW_AT_high_pc(0x00)
	.dwattr $C$DW$15, DW_AT_TI_symbol_name("_USER8_ISR")
	.dwattr $C$DW$15, DW_AT_external
	.dwattr $C$DW$15, DW_AT_TI_begin_file("C:/TI/c2000/C2000Ware_4_00_00_00/device_support/f2837xd/common/source/F2837xD_DefaultISR.c")
	.dwattr $C$DW$15, DW_AT_TI_begin_line(0x122)
	.dwattr $C$DW$15, DW_AT_TI_begin_column(0x10)
	.dwattr $C$DW$15, DW_AT_TI_interrupt
	.dwattr $C$DW$15, DW_AT_TI_max_frame_size(-6)
	.dwpsn	file "C:/TI/c2000/C2000Ware_4_00_00_00/device_support/f2837xd/common/source/F2837xD_DefaultISR.c",line 291,column 1,is_stmt,address _USER8_ISR,isa 0

	.dwfde $C$DW$CIE, _USER8_ISR
;----------------------------------------------------------------------
; 290 | interrupt void USER8_ISR(void)                                         
; 292 | //                                                                     
; 293 | // Insert ISR Code here                                                
; 294 | //                                                                     
; 296 | //                                                                     
; 297 | // Next two lines for debug only to halt the processor here            
; 298 | // Remove after inserting ISR Code                                     
; 299 | //                                                                     
;----------------------------------------------------------------------

;***************************************************************
;* FNAME: _USER8_ISR                    FR SIZE:   4           *
;*                                                             *
;* FUNCTION ENVIRONMENT                                        *
;*                                                             *
;* FUNCTION PROPERTIES                                         *
;*                            0 Parameter,  0 Auto,  4 SOE     *
;***************************************************************

_USER8_ISR:
	.dwcfi	cfa_offset, -2
	.dwcfi	save_reg_to_mem, 26, 0
        ASP       ; [CPU_ALU] 
        PUSH      RB                    ; [CPU_FPU] 
	.dwcfi	save_reg_to_mem, 74, 4
	.dwcfi	cfa_offset, -4
        MOV32     *SP++,STF             ; [CPU_FPU] 
	.dwcfi	save_reg_to_mem, 40, 6
	.dwcfi	cfa_offset, -6
        SETFLG    RNDF32=1, RNDF64=1    ; [CPU_FPU] 
        CLRC      PAGE0,OVM             ; [CPU_ALU] 
        CLRC      AMODE                 ; [CPU_ALU] 
	.dwpsn	file "C:/TI/c2000/C2000Ware_4_00_00_00/device_support/f2837xd/common/source/F2837xD_DefaultISR.c",line 300,column 5,is_stmt,isa 0
;----------------------------------------------------------------------
; 300 | asm ("      ESTOP0");                                                  
;----------------------------------------------------------------------
      ESTOP0
$C$L15:    
	.dwpsn	file "C:/TI/c2000/C2000Ware_4_00_00_00/device_support/f2837xd/common/source/F2837xD_DefaultISR.c",line 301,column 5,is_stmt,isa 0
;----------------------------------------------------------------------
; 301 | for(;;);                                                               
;----------------------------------------------------------------------
        B         $C$L15,UNC            ; [CPU_ALU] |301| 
        ; branch occurs ; [] |301| 
	.dwattr $C$DW$15, DW_AT_TI_end_file("C:/TI/c2000/C2000Ware_4_00_00_00/device_support/f2837xd/common/source/F2837xD_DefaultISR.c")
	.dwattr $C$DW$15, DW_AT_TI_end_line(0x12e)
	.dwattr $C$DW$15, DW_AT_TI_end_column(0x01)
	.dwendentry
	.dwendtag $C$DW$15

	.sect	".text:retain"
	.retain
	.retainrefs
	.global	_USER9_ISR

$C$DW$16	.dwtag  DW_TAG_subprogram
	.dwattr $C$DW$16, DW_AT_name("USER9_ISR")
	.dwattr $C$DW$16, DW_AT_low_pc(_USER9_ISR)
	.dwattr $C$DW$16, DW_AT_high_pc(0x00)
	.dwattr $C$DW$16, DW_AT_TI_symbol_name("_USER9_ISR")
	.dwattr $C$DW$16, DW_AT_external
	.dwattr $C$DW$16, DW_AT_TI_begin_file("C:/TI/c2000/C2000Ware_4_00_00_00/device_support/f2837xd/common/source/F2837xD_DefaultISR.c")
	.dwattr $C$DW$16, DW_AT_TI_begin_line(0x133)
	.dwattr $C$DW$16, DW_AT_TI_begin_column(0x10)
	.dwattr $C$DW$16, DW_AT_TI_interrupt
	.dwattr $C$DW$16, DW_AT_TI_max_frame_size(-6)
	.dwpsn	file "C:/TI/c2000/C2000Ware_4_00_00_00/device_support/f2837xd/common/source/F2837xD_DefaultISR.c",line 308,column 1,is_stmt,address _USER9_ISR,isa 0

	.dwfde $C$DW$CIE, _USER9_ISR
;----------------------------------------------------------------------
; 307 | interrupt void USER9_ISR(void)                                         
; 309 | //                                                                     
; 310 | // Insert ISR Code here                                                
; 311 | //                                                                     
; 313 | //                                                                     
; 314 | // Next two lines for debug only to halt the processor here            
; 315 | // Remove after inserting ISR Code                                     
; 316 | //                                                                     
;----------------------------------------------------------------------

;***************************************************************
;* FNAME: _USER9_ISR                    FR SIZE:   4           *
;*                                                             *
;* FUNCTION ENVIRONMENT                                        *
;*                                                             *
;* FUNCTION PROPERTIES                                         *
;*                            0 Parameter,  0 Auto,  4 SOE     *
;***************************************************************

_USER9_ISR:
	.dwcfi	cfa_offset, -2
	.dwcfi	save_reg_to_mem, 26, 0
        ASP       ; [CPU_ALU] 
        PUSH      RB                    ; [CPU_FPU] 
	.dwcfi	save_reg_to_mem, 74, 4
	.dwcfi	cfa_offset, -4
        MOV32     *SP++,STF             ; [CPU_FPU] 
	.dwcfi	save_reg_to_mem, 40, 6
	.dwcfi	cfa_offset, -6
        SETFLG    RNDF32=1, RNDF64=1    ; [CPU_FPU] 
        CLRC      PAGE0,OVM             ; [CPU_ALU] 
        CLRC      AMODE                 ; [CPU_ALU] 
	.dwpsn	file "C:/TI/c2000/C2000Ware_4_00_00_00/device_support/f2837xd/common/source/F2837xD_DefaultISR.c",line 317,column 5,is_stmt,isa 0
;----------------------------------------------------------------------
; 317 | asm ("      ESTOP0");                                                  
;----------------------------------------------------------------------
      ESTOP0
$C$L16:    
	.dwpsn	file "C:/TI/c2000/C2000Ware_4_00_00_00/device_support/f2837xd/common/source/F2837xD_DefaultISR.c",line 318,column 5,is_stmt,isa 0
;----------------------------------------------------------------------
; 318 | for(;;);                                                               
;----------------------------------------------------------------------
        B         $C$L16,UNC            ; [CPU_ALU] |318| 
        ; branch occurs ; [] |318| 
	.dwattr $C$DW$16, DW_AT_TI_end_file("C:/TI/c2000/C2000Ware_4_00_00_00/device_support/f2837xd/common/source/F2837xD_DefaultISR.c")
	.dwattr $C$DW$16, DW_AT_TI_end_line(0x13f)
	.dwattr $C$DW$16, DW_AT_TI_end_column(0x01)
	.dwendentry
	.dwendtag $C$DW$16

	.sect	".text:retain"
	.retain
	.retainrefs
	.global	_USER10_ISR

$C$DW$17	.dwtag  DW_TAG_subprogram
	.dwattr $C$DW$17, DW_AT_name("USER10_ISR")
	.dwattr $C$DW$17, DW_AT_low_pc(_USER10_ISR)
	.dwattr $C$DW$17, DW_AT_high_pc(0x00)
	.dwattr $C$DW$17, DW_AT_TI_symbol_name("_USER10_ISR")
	.dwattr $C$DW$17, DW_AT_external
	.dwattr $C$DW$17, DW_AT_TI_begin_file("C:/TI/c2000/C2000Ware_4_00_00_00/device_support/f2837xd/common/source/F2837xD_DefaultISR.c")
	.dwattr $C$DW$17, DW_AT_TI_begin_line(0x144)
	.dwattr $C$DW$17, DW_AT_TI_begin_column(0x10)
	.dwattr $C$DW$17, DW_AT_TI_interrupt
	.dwattr $C$DW$17, DW_AT_TI_max_frame_size(-6)
	.dwpsn	file "C:/TI/c2000/C2000Ware_4_00_00_00/device_support/f2837xd/common/source/F2837xD_DefaultISR.c",line 325,column 1,is_stmt,address _USER10_ISR,isa 0

	.dwfde $C$DW$CIE, _USER10_ISR
;----------------------------------------------------------------------
; 324 | interrupt void USER10_ISR(void)                                        
; 326 | //                                                                     
; 327 | // Insert ISR Code here                                                
; 328 | //                                                                     
; 330 | //                                                                     
; 331 | // Next two lines for debug only to halt the processor here            
; 332 | // Remove after inserting ISR Code                                     
; 333 | //                                                                     
;----------------------------------------------------------------------

;***************************************************************
;* FNAME: _USER10_ISR                   FR SIZE:   4           *
;*                                                             *
;* FUNCTION ENVIRONMENT                                        *
;*                                                             *
;* FUNCTION PROPERTIES                                         *
;*                            0 Parameter,  0 Auto,  4 SOE     *
;***************************************************************

_USER10_ISR:
	.dwcfi	cfa_offset, -2
	.dwcfi	save_reg_to_mem, 26, 0
        ASP       ; [CPU_ALU] 
        PUSH      RB                    ; [CPU_FPU] 
	.dwcfi	save_reg_to_mem, 74, 4
	.dwcfi	cfa_offset, -4
        MOV32     *SP++,STF             ; [CPU_FPU] 
	.dwcfi	save_reg_to_mem, 40, 6
	.dwcfi	cfa_offset, -6
        SETFLG    RNDF32=1, RNDF64=1    ; [CPU_FPU] 
        CLRC      PAGE0,OVM             ; [CPU_ALU] 
        CLRC      AMODE                 ; [CPU_ALU] 
	.dwpsn	file "C:/TI/c2000/C2000Ware_4_00_00_00/device_support/f2837xd/common/source/F2837xD_DefaultISR.c",line 334,column 5,is_stmt,isa 0
;----------------------------------------------------------------------
; 334 | asm ("      ESTOP0");                                                  
;----------------------------------------------------------------------
      ESTOP0
$C$L17:    
	.dwpsn	file "C:/TI/c2000/C2000Ware_4_00_00_00/device_support/f2837xd/common/source/F2837xD_DefaultISR.c",line 335,column 5,is_stmt,isa 0
;----------------------------------------------------------------------
; 335 | for(;;);                                                               
;----------------------------------------------------------------------
        B         $C$L17,UNC            ; [CPU_ALU] |335| 
        ; branch occurs ; [] |335| 
	.dwattr $C$DW$17, DW_AT_TI_end_file("C:/TI/c2000/C2000Ware_4_00_00_00/device_support/f2837xd/common/source/F2837xD_DefaultISR.c")
	.dwattr $C$DW$17, DW_AT_TI_end_line(0x150)
	.dwattr $C$DW$17, DW_AT_TI_end_column(0x01)
	.dwendentry
	.dwendtag $C$DW$17

	.sect	".text:retain"
	.retain
	.retainrefs
	.global	_USER11_ISR

$C$DW$18	.dwtag  DW_TAG_subprogram
	.dwattr $C$DW$18, DW_AT_name("USER11_ISR")
	.dwattr $C$DW$18, DW_AT_low_pc(_USER11_ISR)
	.dwattr $C$DW$18, DW_AT_high_pc(0x00)
	.dwattr $C$DW$18, DW_AT_TI_symbol_name("_USER11_ISR")
	.dwattr $C$DW$18, DW_AT_external
	.dwattr $C$DW$18, DW_AT_TI_begin_file("C:/TI/c2000/C2000Ware_4_00_00_00/device_support/f2837xd/common/source/F2837xD_DefaultISR.c")
	.dwattr $C$DW$18, DW_AT_TI_begin_line(0x155)
	.dwattr $C$DW$18, DW_AT_TI_begin_column(0x10)
	.dwattr $C$DW$18, DW_AT_TI_interrupt
	.dwattr $C$DW$18, DW_AT_TI_max_frame_size(-6)
	.dwpsn	file "C:/TI/c2000/C2000Ware_4_00_00_00/device_support/f2837xd/common/source/F2837xD_DefaultISR.c",line 342,column 1,is_stmt,address _USER11_ISR,isa 0

	.dwfde $C$DW$CIE, _USER11_ISR
;----------------------------------------------------------------------
; 341 | interrupt void USER11_ISR(void)                                        
; 343 | //                                                                     
; 344 | // Insert ISR Code here                                                
; 345 | //                                                                     
; 347 | //                                                                     
; 348 | // Next two lines for debug only to halt the processor here            
; 349 | // Remove after inserting ISR Code                                     
; 350 | //                                                                     
;----------------------------------------------------------------------

;***************************************************************
;* FNAME: _USER11_ISR                   FR SIZE:   4           *
;*                                                             *
;* FUNCTION ENVIRONMENT                                        *
;*                                                             *
;* FUNCTION PROPERTIES                                         *
;*                            0 Parameter,  0 Auto,  4 SOE     *
;***************************************************************

_USER11_ISR:
	.dwcfi	cfa_offset, -2
	.dwcfi	save_reg_to_mem, 26, 0
        ASP       ; [CPU_ALU] 
        PUSH      RB                    ; [CPU_FPU] 
	.dwcfi	save_reg_to_mem, 74, 4
	.dwcfi	cfa_offset, -4
        MOV32     *SP++,STF             ; [CPU_FPU] 
	.dwcfi	save_reg_to_mem, 40, 6
	.dwcfi	cfa_offset, -6
        SETFLG    RNDF32=1, RNDF64=1    ; [CPU_FPU] 
        CLRC      PAGE0,OVM             ; [CPU_ALU] 
        CLRC      AMODE                 ; [CPU_ALU] 
	.dwpsn	file "C:/TI/c2000/C2000Ware_4_00_00_00/device_support/f2837xd/common/source/F2837xD_DefaultISR.c",line 351,column 5,is_stmt,isa 0
;----------------------------------------------------------------------
; 351 | asm ("      ESTOP0");                                                  
;----------------------------------------------------------------------
      ESTOP0
$C$L18:    
	.dwpsn	file "C:/TI/c2000/C2000Ware_4_00_00_00/device_support/f2837xd/common/source/F2837xD_DefaultISR.c",line 352,column 5,is_stmt,isa 0
;----------------------------------------------------------------------
; 352 | for(;;);                                                               
;----------------------------------------------------------------------
        B         $C$L18,UNC            ; [CPU_ALU] |352| 
        ; branch occurs ; [] |352| 
	.dwattr $C$DW$18, DW_AT_TI_end_file("C:/TI/c2000/C2000Ware_4_00_00_00/device_support/f2837xd/common/source/F2837xD_DefaultISR.c")
	.dwattr $C$DW$18, DW_AT_TI_end_line(0x161)
	.dwattr $C$DW$18, DW_AT_TI_end_column(0x01)
	.dwendentry
	.dwendtag $C$DW$18

	.sect	".text:retain"
	.retain
	.retainrefs
	.global	_USER12_ISR

$C$DW$19	.dwtag  DW_TAG_subprogram
	.dwattr $C$DW$19, DW_AT_name("USER12_ISR")
	.dwattr $C$DW$19, DW_AT_low_pc(_USER12_ISR)
	.dwattr $C$DW$19, DW_AT_high_pc(0x00)
	.dwattr $C$DW$19, DW_AT_TI_symbol_name("_USER12_ISR")
	.dwattr $C$DW$19, DW_AT_external
	.dwattr $C$DW$19, DW_AT_TI_begin_file("C:/TI/c2000/C2000Ware_4_00_00_00/device_support/f2837xd/common/source/F2837xD_DefaultISR.c")
	.dwattr $C$DW$19, DW_AT_TI_begin_line(0x166)
	.dwattr $C$DW$19, DW_AT_TI_begin_column(0x10)
	.dwattr $C$DW$19, DW_AT_TI_interrupt
	.dwattr $C$DW$19, DW_AT_TI_max_frame_size(-6)
	.dwpsn	file "C:/TI/c2000/C2000Ware_4_00_00_00/device_support/f2837xd/common/source/F2837xD_DefaultISR.c",line 359,column 1,is_stmt,address _USER12_ISR,isa 0

	.dwfde $C$DW$CIE, _USER12_ISR
;----------------------------------------------------------------------
; 358 | interrupt void USER12_ISR(void)                                        
; 360 | //                                                                     
; 361 | // Insert ISR Code here                                                
; 362 | //                                                                     
; 364 | //                                                                     
; 365 | // Next two lines for debug only to halt the processor here            
; 366 | // Remove after inserting ISR Code                                     
; 367 | //                                                                     
;----------------------------------------------------------------------

;***************************************************************
;* FNAME: _USER12_ISR                   FR SIZE:   4           *
;*                                                             *
;* FUNCTION ENVIRONMENT                                        *
;*                                                             *
;* FUNCTION PROPERTIES                                         *
;*                            0 Parameter,  0 Auto,  4 SOE     *
;***************************************************************

_USER12_ISR:
	.dwcfi	cfa_offset, -2
	.dwcfi	save_reg_to_mem, 26, 0
        ASP       ; [CPU_ALU] 
        PUSH      RB                    ; [CPU_FPU] 
	.dwcfi	save_reg_to_mem, 74, 4
	.dwcfi	cfa_offset, -4
        MOV32     *SP++,STF             ; [CPU_FPU] 
	.dwcfi	save_reg_to_mem, 40, 6
	.dwcfi	cfa_offset, -6
        SETFLG    RNDF32=1, RNDF64=1    ; [CPU_FPU] 
        CLRC      PAGE0,OVM             ; [CPU_ALU] 
        CLRC      AMODE                 ; [CPU_ALU] 
	.dwpsn	file "C:/TI/c2000/C2000Ware_4_00_00_00/device_support/f2837xd/common/source/F2837xD_DefaultISR.c",line 368,column 5,is_stmt,isa 0
;----------------------------------------------------------------------
; 368 | asm ("      ESTOP0");                                                  
;----------------------------------------------------------------------
      ESTOP0
$C$L19:    
	.dwpsn	file "C:/TI/c2000/C2000Ware_4_00_00_00/device_support/f2837xd/common/source/F2837xD_DefaultISR.c",line 369,column 5,is_stmt,isa 0
;----------------------------------------------------------------------
; 369 | for(;;);                                                               
;----------------------------------------------------------------------
        B         $C$L19,UNC            ; [CPU_ALU] |369| 
        ; branch occurs ; [] |369| 
	.dwattr $C$DW$19, DW_AT_TI_end_file("C:/TI/c2000/C2000Ware_4_00_00_00/device_support/f2837xd/common/source/F2837xD_DefaultISR.c")
	.dwattr $C$DW$19, DW_AT_TI_end_line(0x172)
	.dwattr $C$DW$19, DW_AT_TI_end_column(0x01)
	.dwendentry
	.dwendtag $C$DW$19

	.sect	".text:retain"
	.retain
	.retainrefs
	.global	_ADCA1_ISR

$C$DW$20	.dwtag  DW_TAG_subprogram
	.dwattr $C$DW$20, DW_AT_name("ADCA1_ISR")
	.dwattr $C$DW$20, DW_AT_low_pc(_ADCA1_ISR)
	.dwattr $C$DW$20, DW_AT_high_pc(0x00)
	.dwattr $C$DW$20, DW_AT_TI_symbol_name("_ADCA1_ISR")
	.dwattr $C$DW$20, DW_AT_external
	.dwattr $C$DW$20, DW_AT_TI_begin_file("C:/TI/c2000/C2000Ware_4_00_00_00/device_support/f2837xd/common/source/F2837xD_DefaultISR.c")
	.dwattr $C$DW$20, DW_AT_TI_begin_line(0x177)
	.dwattr $C$DW$20, DW_AT_TI_begin_column(0x10)
	.dwattr $C$DW$20, DW_AT_TI_interrupt
	.dwattr $C$DW$20, DW_AT_TI_max_frame_size(-6)
	.dwpsn	file "C:/TI/c2000/C2000Ware_4_00_00_00/device_support/f2837xd/common/source/F2837xD_DefaultISR.c",line 376,column 1,is_stmt,address _ADCA1_ISR,isa 0

	.dwfde $C$DW$CIE, _ADCA1_ISR
;----------------------------------------------------------------------
; 375 | interrupt void ADCA1_ISR(void)                                         
; 377 | //                                                                     
; 378 | // Insert ISR Code here                                                
; 379 | //                                                                     
; 381 | //                                                                     
; 382 | // To receive more interrupts from this PIE group,                     
; 383 | // acknowledge this interrupt.                                         
; 384 | // PieCtrlRegs.PIEACK.all = PIEACK_GROUP1;                             
; 385 | //                                                                     
; 387 | //                                                                     
; 388 | // Next two lines for debug only to halt the processor here            
; 389 | // Remove after inserting ISR Code                                     
; 390 | //                                                                     
;----------------------------------------------------------------------

;***************************************************************
;* FNAME: _ADCA1_ISR                    FR SIZE:   4           *
;*                                                             *
;* FUNCTION ENVIRONMENT                                        *
;*                                                             *
;* FUNCTION PROPERTIES                                         *
;*                            0 Parameter,  0 Auto,  4 SOE     *
;***************************************************************

_ADCA1_ISR:
	.dwcfi	cfa_offset, -2
	.dwcfi	save_reg_to_mem, 26, 0
        ASP       ; [CPU_ALU] 
        PUSH      RB                    ; [CPU_FPU] 
	.dwcfi	save_reg_to_mem, 74, 4
	.dwcfi	cfa_offset, -4
        MOV32     *SP++,STF             ; [CPU_FPU] 
	.dwcfi	save_reg_to_mem, 40, 6
	.dwcfi	cfa_offset, -6
        SETFLG    RNDF32=1, RNDF64=1    ; [CPU_FPU] 
        CLRC      PAGE0,OVM             ; [CPU_ALU] 
        CLRC      AMODE                 ; [CPU_ALU] 
	.dwpsn	file "C:/TI/c2000/C2000Ware_4_00_00_00/device_support/f2837xd/common/source/F2837xD_DefaultISR.c",line 391,column 5,is_stmt,isa 0
;----------------------------------------------------------------------
; 391 | asm ("      ESTOP0");                                                  
;----------------------------------------------------------------------
      ESTOP0
$C$L20:    
	.dwpsn	file "C:/TI/c2000/C2000Ware_4_00_00_00/device_support/f2837xd/common/source/F2837xD_DefaultISR.c",line 392,column 5,is_stmt,isa 0
;----------------------------------------------------------------------
; 392 | for(;;);                                                               
;----------------------------------------------------------------------
        B         $C$L20,UNC            ; [CPU_ALU] |392| 
        ; branch occurs ; [] |392| 
	.dwattr $C$DW$20, DW_AT_TI_end_file("C:/TI/c2000/C2000Ware_4_00_00_00/device_support/f2837xd/common/source/F2837xD_DefaultISR.c")
	.dwattr $C$DW$20, DW_AT_TI_end_line(0x189)
	.dwattr $C$DW$20, DW_AT_TI_end_column(0x01)
	.dwendentry
	.dwendtag $C$DW$20

	.sect	".text:retain"
	.retain
	.retainrefs
	.global	_ADCB1_ISR

$C$DW$21	.dwtag  DW_TAG_subprogram
	.dwattr $C$DW$21, DW_AT_name("ADCB1_ISR")
	.dwattr $C$DW$21, DW_AT_low_pc(_ADCB1_ISR)
	.dwattr $C$DW$21, DW_AT_high_pc(0x00)
	.dwattr $C$DW$21, DW_AT_TI_symbol_name("_ADCB1_ISR")
	.dwattr $C$DW$21, DW_AT_external
	.dwattr $C$DW$21, DW_AT_TI_begin_file("C:/TI/c2000/C2000Ware_4_00_00_00/device_support/f2837xd/common/source/F2837xD_DefaultISR.c")
	.dwattr $C$DW$21, DW_AT_TI_begin_line(0x18e)
	.dwattr $C$DW$21, DW_AT_TI_begin_column(0x10)
	.dwattr $C$DW$21, DW_AT_TI_interrupt
	.dwattr $C$DW$21, DW_AT_TI_max_frame_size(-6)
	.dwpsn	file "C:/TI/c2000/C2000Ware_4_00_00_00/device_support/f2837xd/common/source/F2837xD_DefaultISR.c",line 399,column 1,is_stmt,address _ADCB1_ISR,isa 0

	.dwfde $C$DW$CIE, _ADCB1_ISR
;----------------------------------------------------------------------
; 398 | interrupt void ADCB1_ISR(void)                                         
; 400 | //                                                                     
; 401 | // Insert ISR Code here                                                
; 402 | //                                                                     
; 404 | //                                                                     
; 405 | // To receive more interrupts from this PIE group,                     
; 406 | // acknowledge this interrupt.                                         
; 407 | // PieCtrlRegs.PIEACK.all = PIEACK_GROUP1;                             
; 408 | //                                                                     
; 410 | //                                                                     
; 411 | // Next two lines for debug only to halt the processor here            
; 412 | // Remove after inserting ISR Code                                     
; 413 | //                                                                     
;----------------------------------------------------------------------

;***************************************************************
;* FNAME: _ADCB1_ISR                    FR SIZE:   4           *
;*                                                             *
;* FUNCTION ENVIRONMENT                                        *
;*                                                             *
;* FUNCTION PROPERTIES                                         *
;*                            0 Parameter,  0 Auto,  4 SOE     *
;***************************************************************

_ADCB1_ISR:
	.dwcfi	cfa_offset, -2
	.dwcfi	save_reg_to_mem, 26, 0
        ASP       ; [CPU_ALU] 
        PUSH      RB                    ; [CPU_FPU] 
	.dwcfi	save_reg_to_mem, 74, 4
	.dwcfi	cfa_offset, -4
        MOV32     *SP++,STF             ; [CPU_FPU] 
	.dwcfi	save_reg_to_mem, 40, 6
	.dwcfi	cfa_offset, -6
        SETFLG    RNDF32=1, RNDF64=1    ; [CPU_FPU] 
        CLRC      PAGE0,OVM             ; [CPU_ALU] 
        CLRC      AMODE                 ; [CPU_ALU] 
	.dwpsn	file "C:/TI/c2000/C2000Ware_4_00_00_00/device_support/f2837xd/common/source/F2837xD_DefaultISR.c",line 414,column 5,is_stmt,isa 0
;----------------------------------------------------------------------
; 414 | asm ("      ESTOP0");                                                  
;----------------------------------------------------------------------
      ESTOP0
$C$L21:    
	.dwpsn	file "C:/TI/c2000/C2000Ware_4_00_00_00/device_support/f2837xd/common/source/F2837xD_DefaultISR.c",line 415,column 5,is_stmt,isa 0
;----------------------------------------------------------------------
; 415 | for(;;);                                                               
;----------------------------------------------------------------------
        B         $C$L21,UNC            ; [CPU_ALU] |415| 
        ; branch occurs ; [] |415| 
	.dwattr $C$DW$21, DW_AT_TI_end_file("C:/TI/c2000/C2000Ware_4_00_00_00/device_support/f2837xd/common/source/F2837xD_DefaultISR.c")
	.dwattr $C$DW$21, DW_AT_TI_end_line(0x1a0)
	.dwattr $C$DW$21, DW_AT_TI_end_column(0x01)
	.dwendentry
	.dwendtag $C$DW$21

	.sect	".text:retain"
	.retain
	.retainrefs
	.global	_ADCC1_ISR

$C$DW$22	.dwtag  DW_TAG_subprogram
	.dwattr $C$DW$22, DW_AT_name("ADCC1_ISR")
	.dwattr $C$DW$22, DW_AT_low_pc(_ADCC1_ISR)
	.dwattr $C$DW$22, DW_AT_high_pc(0x00)
	.dwattr $C$DW$22, DW_AT_TI_symbol_name("_ADCC1_ISR")
	.dwattr $C$DW$22, DW_AT_external
	.dwattr $C$DW$22, DW_AT_TI_begin_file("C:/TI/c2000/C2000Ware_4_00_00_00/device_support/f2837xd/common/source/F2837xD_DefaultISR.c")
	.dwattr $C$DW$22, DW_AT_TI_begin_line(0x1a5)
	.dwattr $C$DW$22, DW_AT_TI_begin_column(0x10)
	.dwattr $C$DW$22, DW_AT_TI_interrupt
	.dwattr $C$DW$22, DW_AT_TI_max_frame_size(-6)
	.dwpsn	file "C:/TI/c2000/C2000Ware_4_00_00_00/device_support/f2837xd/common/source/F2837xD_DefaultISR.c",line 422,column 1,is_stmt,address _ADCC1_ISR,isa 0

	.dwfde $C$DW$CIE, _ADCC1_ISR
;----------------------------------------------------------------------
; 421 | interrupt void ADCC1_ISR(void)                                         
; 423 | //                                                                     
; 424 | // Insert ISR Code here                                                
; 425 | //                                                                     
; 427 | //                                                                     
; 428 | // To receive more interrupts from this PIE group,                     
; 429 | // acknowledge this interrupt.                                         
; 430 | // PieCtrlRegs.PIEACK.all = PIEACK_GROUP1;                             
; 431 | //                                                                     
; 433 | //                                                                     
; 434 | // Next two lines for debug only to halt the processor here            
; 435 | // Remove after inserting ISR Code                                     
; 436 | //                                                                     
;----------------------------------------------------------------------

;***************************************************************
;* FNAME: _ADCC1_ISR                    FR SIZE:   4           *
;*                                                             *
;* FUNCTION ENVIRONMENT                                        *
;*                                                             *
;* FUNCTION PROPERTIES                                         *
;*                            0 Parameter,  0 Auto,  4 SOE     *
;***************************************************************

_ADCC1_ISR:
	.dwcfi	cfa_offset, -2
	.dwcfi	save_reg_to_mem, 26, 0
        ASP       ; [CPU_ALU] 
        PUSH      RB                    ; [CPU_FPU] 
	.dwcfi	save_reg_to_mem, 74, 4
	.dwcfi	cfa_offset, -4
        MOV32     *SP++,STF             ; [CPU_FPU] 
	.dwcfi	save_reg_to_mem, 40, 6
	.dwcfi	cfa_offset, -6
        SETFLG    RNDF32=1, RNDF64=1    ; [CPU_FPU] 
        CLRC      PAGE0,OVM             ; [CPU_ALU] 
        CLRC      AMODE                 ; [CPU_ALU] 
	.dwpsn	file "C:/TI/c2000/C2000Ware_4_00_00_00/device_support/f2837xd/common/source/F2837xD_DefaultISR.c",line 437,column 5,is_stmt,isa 0
;----------------------------------------------------------------------
; 437 | asm ("      ESTOP0");                                                  
;----------------------------------------------------------------------
      ESTOP0
$C$L22:    
	.dwpsn	file "C:/TI/c2000/C2000Ware_4_00_00_00/device_support/f2837xd/common/source/F2837xD_DefaultISR.c",line 438,column 5,is_stmt,isa 0
;----------------------------------------------------------------------
; 438 | for(;;);                                                               
;----------------------------------------------------------------------
        B         $C$L22,UNC            ; [CPU_ALU] |438| 
        ; branch occurs ; [] |438| 
	.dwattr $C$DW$22, DW_AT_TI_end_file("C:/TI/c2000/C2000Ware_4_00_00_00/device_support/f2837xd/common/source/F2837xD_DefaultISR.c")
	.dwattr $C$DW$22, DW_AT_TI_end_line(0x1b7)
	.dwattr $C$DW$22, DW_AT_TI_end_column(0x01)
	.dwendentry
	.dwendtag $C$DW$22

	.sect	".text:retain"
	.retain
	.retainrefs
	.global	_XINT1_ISR

$C$DW$23	.dwtag  DW_TAG_subprogram
	.dwattr $C$DW$23, DW_AT_name("XINT1_ISR")
	.dwattr $C$DW$23, DW_AT_low_pc(_XINT1_ISR)
	.dwattr $C$DW$23, DW_AT_high_pc(0x00)
	.dwattr $C$DW$23, DW_AT_TI_symbol_name("_XINT1_ISR")
	.dwattr $C$DW$23, DW_AT_external
	.dwattr $C$DW$23, DW_AT_TI_begin_file("C:/TI/c2000/C2000Ware_4_00_00_00/device_support/f2837xd/common/source/F2837xD_DefaultISR.c")
	.dwattr $C$DW$23, DW_AT_TI_begin_line(0x1bc)
	.dwattr $C$DW$23, DW_AT_TI_begin_column(0x10)
	.dwattr $C$DW$23, DW_AT_TI_interrupt
	.dwattr $C$DW$23, DW_AT_TI_max_frame_size(-6)
	.dwpsn	file "C:/TI/c2000/C2000Ware_4_00_00_00/device_support/f2837xd/common/source/F2837xD_DefaultISR.c",line 445,column 1,is_stmt,address _XINT1_ISR,isa 0

	.dwfde $C$DW$CIE, _XINT1_ISR
;----------------------------------------------------------------------
; 444 | interrupt void XINT1_ISR(void)                                         
; 446 | //                                                                     
; 447 | // Insert ISR Code here                                                
; 448 | //                                                                     
; 450 | //                                                                     
; 451 | // To receive more interrupts from this PIE group,                     
; 452 | // acknowledge this interrupt.                                         
; 453 | // PieCtrlRegs.PIEACK.all = PIEACK_GROUP1;                             
; 454 | //                                                                     
; 456 | //                                                                     
; 457 | // Next two lines for debug only to halt the processor here            
; 458 | // Remove after inserting ISR Code                                     
; 459 | //                                                                     
;----------------------------------------------------------------------

;***************************************************************
;* FNAME: _XINT1_ISR                    FR SIZE:   4           *
;*                                                             *
;* FUNCTION ENVIRONMENT                                        *
;*                                                             *
;* FUNCTION PROPERTIES                                         *
;*                            0 Parameter,  0 Auto,  4 SOE     *
;***************************************************************

_XINT1_ISR:
	.dwcfi	cfa_offset, -2
	.dwcfi	save_reg_to_mem, 26, 0
        ASP       ; [CPU_ALU] 
        PUSH      RB                    ; [CPU_FPU] 
	.dwcfi	save_reg_to_mem, 74, 4
	.dwcfi	cfa_offset, -4
        MOV32     *SP++,STF             ; [CPU_FPU] 
	.dwcfi	save_reg_to_mem, 40, 6
	.dwcfi	cfa_offset, -6
        SETFLG    RNDF32=1, RNDF64=1    ; [CPU_FPU] 
        CLRC      PAGE0,OVM             ; [CPU_ALU] 
        CLRC      AMODE                 ; [CPU_ALU] 
	.dwpsn	file "C:/TI/c2000/C2000Ware_4_00_00_00/device_support/f2837xd/common/source/F2837xD_DefaultISR.c",line 460,column 5,is_stmt,isa 0
;----------------------------------------------------------------------
; 460 | asm ("      ESTOP0");                                                  
;----------------------------------------------------------------------
      ESTOP0
$C$L23:    
	.dwpsn	file "C:/TI/c2000/C2000Ware_4_00_00_00/device_support/f2837xd/common/source/F2837xD_DefaultISR.c",line 461,column 5,is_stmt,isa 0
;----------------------------------------------------------------------
; 461 | for(;;);                                                               
;----------------------------------------------------------------------
        B         $C$L23,UNC            ; [CPU_ALU] |461| 
        ; branch occurs ; [] |461| 
	.dwattr $C$DW$23, DW_AT_TI_end_file("C:/TI/c2000/C2000Ware_4_00_00_00/device_support/f2837xd/common/source/F2837xD_DefaultISR.c")
	.dwattr $C$DW$23, DW_AT_TI_end_line(0x1ce)
	.dwattr $C$DW$23, DW_AT_TI_end_column(0x01)
	.dwendentry
	.dwendtag $C$DW$23

	.sect	".text:retain"
	.retain
	.retainrefs
	.global	_XINT2_ISR

$C$DW$24	.dwtag  DW_TAG_subprogram
	.dwattr $C$DW$24, DW_AT_name("XINT2_ISR")
	.dwattr $C$DW$24, DW_AT_low_pc(_XINT2_ISR)
	.dwattr $C$DW$24, DW_AT_high_pc(0x00)
	.dwattr $C$DW$24, DW_AT_TI_symbol_name("_XINT2_ISR")
	.dwattr $C$DW$24, DW_AT_external
	.dwattr $C$DW$24, DW_AT_TI_begin_file("C:/TI/c2000/C2000Ware_4_00_00_00/device_support/f2837xd/common/source/F2837xD_DefaultISR.c")
	.dwattr $C$DW$24, DW_AT_TI_begin_line(0x1d3)
	.dwattr $C$DW$24, DW_AT_TI_begin_column(0x10)
	.dwattr $C$DW$24, DW_AT_TI_interrupt
	.dwattr $C$DW$24, DW_AT_TI_max_frame_size(-6)
	.dwpsn	file "C:/TI/c2000/C2000Ware_4_00_00_00/device_support/f2837xd/common/source/F2837xD_DefaultISR.c",line 468,column 1,is_stmt,address _XINT2_ISR,isa 0

	.dwfde $C$DW$CIE, _XINT2_ISR
;----------------------------------------------------------------------
; 467 | interrupt void XINT2_ISR(void)                                         
; 469 | //                                                                     
; 470 | // Insert ISR Code here                                                
; 471 | //                                                                     
; 473 | //                                                                     
; 474 | // To receive more interrupts from this PIE group,                     
; 475 | // acknowledge this interrupt.                                         
; 476 | // PieCtrlRegs.PIEACK.all = PIEACK_GROUP1;                             
; 477 | //                                                                     
; 479 | //                                                                     
; 480 | // Next two lines for debug only to halt the processor here            
; 481 | // Remove after inserting ISR Code                                     
; 482 | //                                                                     
;----------------------------------------------------------------------

;***************************************************************
;* FNAME: _XINT2_ISR                    FR SIZE:   4           *
;*                                                             *
;* FUNCTION ENVIRONMENT                                        *
;*                                                             *
;* FUNCTION PROPERTIES                                         *
;*                            0 Parameter,  0 Auto,  4 SOE     *
;***************************************************************

_XINT2_ISR:
	.dwcfi	cfa_offset, -2
	.dwcfi	save_reg_to_mem, 26, 0
        ASP       ; [CPU_ALU] 
        PUSH      RB                    ; [CPU_FPU] 
	.dwcfi	save_reg_to_mem, 74, 4
	.dwcfi	cfa_offset, -4
        MOV32     *SP++,STF             ; [CPU_FPU] 
	.dwcfi	save_reg_to_mem, 40, 6
	.dwcfi	cfa_offset, -6
        SETFLG    RNDF32=1, RNDF64=1    ; [CPU_FPU] 
        CLRC      PAGE0,OVM             ; [CPU_ALU] 
        CLRC      AMODE                 ; [CPU_ALU] 
	.dwpsn	file "C:/TI/c2000/C2000Ware_4_00_00_00/device_support/f2837xd/common/source/F2837xD_DefaultISR.c",line 483,column 5,is_stmt,isa 0
;----------------------------------------------------------------------
; 483 | asm ("      ESTOP0");                                                  
;----------------------------------------------------------------------
      ESTOP0
$C$L24:    
	.dwpsn	file "C:/TI/c2000/C2000Ware_4_00_00_00/device_support/f2837xd/common/source/F2837xD_DefaultISR.c",line 484,column 5,is_stmt,isa 0
;----------------------------------------------------------------------
; 484 | for(;;);                                                               
;----------------------------------------------------------------------
        B         $C$L24,UNC            ; [CPU_ALU] |484| 
        ; branch occurs ; [] |484| 
	.dwattr $C$DW$24, DW_AT_TI_end_file("C:/TI/c2000/C2000Ware_4_00_00_00/device_support/f2837xd/common/source/F2837xD_DefaultISR.c")
	.dwattr $C$DW$24, DW_AT_TI_end_line(0x1e5)
	.dwattr $C$DW$24, DW_AT_TI_end_column(0x01)
	.dwendentry
	.dwendtag $C$DW$24

	.sect	".text:retain"
	.retain
	.retainrefs
	.global	_ADCD1_ISR

$C$DW$25	.dwtag  DW_TAG_subprogram
	.dwattr $C$DW$25, DW_AT_name("ADCD1_ISR")
	.dwattr $C$DW$25, DW_AT_low_pc(_ADCD1_ISR)
	.dwattr $C$DW$25, DW_AT_high_pc(0x00)
	.dwattr $C$DW$25, DW_AT_TI_symbol_name("_ADCD1_ISR")
	.dwattr $C$DW$25, DW_AT_external
	.dwattr $C$DW$25, DW_AT_TI_begin_file("C:/TI/c2000/C2000Ware_4_00_00_00/device_support/f2837xd/common/source/F2837xD_DefaultISR.c")
	.dwattr $C$DW$25, DW_AT_TI_begin_line(0x1ea)
	.dwattr $C$DW$25, DW_AT_TI_begin_column(0x10)
	.dwattr $C$DW$25, DW_AT_TI_interrupt
	.dwattr $C$DW$25, DW_AT_TI_max_frame_size(-6)
	.dwpsn	file "C:/TI/c2000/C2000Ware_4_00_00_00/device_support/f2837xd/common/source/F2837xD_DefaultISR.c",line 491,column 1,is_stmt,address _ADCD1_ISR,isa 0

	.dwfde $C$DW$CIE, _ADCD1_ISR
;----------------------------------------------------------------------
; 490 | interrupt void ADCD1_ISR(void)                                         
; 492 | //                                                                     
; 493 | // Insert ISR Code here                                                
; 494 | //                                                                     
; 496 | //                                                                     
; 497 | // To receive more interrupts from this PIE group,                     
; 498 | // acknowledge this interrupt.                                         
; 499 | // PieCtrlRegs.PIEACK.all = PIEACK_GROUP1;                             
; 500 | //                                                                     
; 502 | //                                                                     
; 503 | // Next two lines for debug only to halt the processor here            
; 504 | // Remove after inserting ISR Code                                     
; 505 | //                                                                     
;----------------------------------------------------------------------

;***************************************************************
;* FNAME: _ADCD1_ISR                    FR SIZE:   4           *
;*                                                             *
;* FUNCTION ENVIRONMENT                                        *
;*                                                             *
;* FUNCTION PROPERTIES                                         *
;*                            0 Parameter,  0 Auto,  4 SOE     *
;***************************************************************

_ADCD1_ISR:
	.dwcfi	cfa_offset, -2
	.dwcfi	save_reg_to_mem, 26, 0
        ASP       ; [CPU_ALU] 
        PUSH      RB                    ; [CPU_FPU] 
	.dwcfi	save_reg_to_mem, 74, 4
	.dwcfi	cfa_offset, -4
        MOV32     *SP++,STF             ; [CPU_FPU] 
	.dwcfi	save_reg_to_mem, 40, 6
	.dwcfi	cfa_offset, -6
        SETFLG    RNDF32=1, RNDF64=1    ; [CPU_FPU] 
        CLRC      PAGE0,OVM             ; [CPU_ALU] 
        CLRC      AMODE                 ; [CPU_ALU] 
	.dwpsn	file "C:/TI/c2000/C2000Ware_4_00_00_00/device_support/f2837xd/common/source/F2837xD_DefaultISR.c",line 506,column 5,is_stmt,isa 0
;----------------------------------------------------------------------
; 506 | asm ("      ESTOP0");                                                  
;----------------------------------------------------------------------
      ESTOP0
$C$L25:    
	.dwpsn	file "C:/TI/c2000/C2000Ware_4_00_00_00/device_support/f2837xd/common/source/F2837xD_DefaultISR.c",line 507,column 5,is_stmt,isa 0
;----------------------------------------------------------------------
; 507 | for(;;);                                                               
;----------------------------------------------------------------------
        B         $C$L25,UNC            ; [CPU_ALU] |507| 
        ; branch occurs ; [] |507| 
	.dwattr $C$DW$25, DW_AT_TI_end_file("C:/TI/c2000/C2000Ware_4_00_00_00/device_support/f2837xd/common/source/F2837xD_DefaultISR.c")
	.dwattr $C$DW$25, DW_AT_TI_end_line(0x1fc)
	.dwattr $C$DW$25, DW_AT_TI_end_column(0x01)
	.dwendentry
	.dwendtag $C$DW$25

	.sect	".text:retain"
	.retain
	.retainrefs
	.global	_TIMER0_ISR

$C$DW$26	.dwtag  DW_TAG_subprogram
	.dwattr $C$DW$26, DW_AT_name("TIMER0_ISR")
	.dwattr $C$DW$26, DW_AT_low_pc(_TIMER0_ISR)
	.dwattr $C$DW$26, DW_AT_high_pc(0x00)
	.dwattr $C$DW$26, DW_AT_TI_symbol_name("_TIMER0_ISR")
	.dwattr $C$DW$26, DW_AT_external
	.dwattr $C$DW$26, DW_AT_TI_begin_file("C:/TI/c2000/C2000Ware_4_00_00_00/device_support/f2837xd/common/source/F2837xD_DefaultISR.c")
	.dwattr $C$DW$26, DW_AT_TI_begin_line(0x201)
	.dwattr $C$DW$26, DW_AT_TI_begin_column(0x10)
	.dwattr $C$DW$26, DW_AT_TI_interrupt
	.dwattr $C$DW$26, DW_AT_TI_max_frame_size(-6)
	.dwpsn	file "C:/TI/c2000/C2000Ware_4_00_00_00/device_support/f2837xd/common/source/F2837xD_DefaultISR.c",line 514,column 1,is_stmt,address _TIMER0_ISR,isa 0

	.dwfde $C$DW$CIE, _TIMER0_ISR
;----------------------------------------------------------------------
; 513 | interrupt void TIMER0_ISR(void)                                        
; 515 | //                                                                     
; 516 | // Insert ISR Code here                                                
; 517 | //                                                                     
; 519 | //                                                                     
; 520 | // To receive more interrupts from this PIE group,                     
; 521 | // acknowledge this interrupt.                                         
; 522 | // PieCtrlRegs.PIEACK.all = PIEACK_GROUP1;                             
; 523 | //                                                                     
; 525 | //                                                                     
; 526 | // Next two lines for debug only to halt the processor here            
; 527 | // Remove after inserting ISR Code                                     
; 528 | //                                                                     
;----------------------------------------------------------------------

;***************************************************************
;* FNAME: _TIMER0_ISR                   FR SIZE:   4           *
;*                                                             *
;* FUNCTION ENVIRONMENT                                        *
;*                                                             *
;* FUNCTION PROPERTIES                                         *
;*                            0 Parameter,  0 Auto,  4 SOE     *
;***************************************************************

_TIMER0_ISR:
	.dwcfi	cfa_offset, -2
	.dwcfi	save_reg_to_mem, 26, 0
        ASP       ; [CPU_ALU] 
        PUSH      RB                    ; [CPU_FPU] 
	.dwcfi	save_reg_to_mem, 74, 4
	.dwcfi	cfa_offset, -4
        MOV32     *SP++,STF             ; [CPU_FPU] 
	.dwcfi	save_reg_to_mem, 40, 6
	.dwcfi	cfa_offset, -6
        SETFLG    RNDF32=1, RNDF64=1    ; [CPU_FPU] 
        CLRC      PAGE0,OVM             ; [CPU_ALU] 
        CLRC      AMODE                 ; [CPU_ALU] 
	.dwpsn	file "C:/TI/c2000/C2000Ware_4_00_00_00/device_support/f2837xd/common/source/F2837xD_DefaultISR.c",line 529,column 5,is_stmt,isa 0
;----------------------------------------------------------------------
; 529 | asm ("      ESTOP0");                                                  
;----------------------------------------------------------------------
      ESTOP0
$C$L26:    
	.dwpsn	file "C:/TI/c2000/C2000Ware_4_00_00_00/device_support/f2837xd/common/source/F2837xD_DefaultISR.c",line 530,column 5,is_stmt,isa 0
;----------------------------------------------------------------------
; 530 | for(;;);                                                               
;----------------------------------------------------------------------
        B         $C$L26,UNC            ; [CPU_ALU] |530| 
        ; branch occurs ; [] |530| 
	.dwattr $C$DW$26, DW_AT_TI_end_file("C:/TI/c2000/C2000Ware_4_00_00_00/device_support/f2837xd/common/source/F2837xD_DefaultISR.c")
	.dwattr $C$DW$26, DW_AT_TI_end_line(0x213)
	.dwattr $C$DW$26, DW_AT_TI_end_column(0x01)
	.dwendentry
	.dwendtag $C$DW$26

	.sect	".text:retain"
	.retain
	.retainrefs
	.global	_WAKE_ISR

$C$DW$27	.dwtag  DW_TAG_subprogram
	.dwattr $C$DW$27, DW_AT_name("WAKE_ISR")
	.dwattr $C$DW$27, DW_AT_low_pc(_WAKE_ISR)
	.dwattr $C$DW$27, DW_AT_high_pc(0x00)
	.dwattr $C$DW$27, DW_AT_TI_symbol_name("_WAKE_ISR")
	.dwattr $C$DW$27, DW_AT_external
	.dwattr $C$DW$27, DW_AT_TI_begin_file("C:/TI/c2000/C2000Ware_4_00_00_00/device_support/f2837xd/common/source/F2837xD_DefaultISR.c")
	.dwattr $C$DW$27, DW_AT_TI_begin_line(0x218)
	.dwattr $C$DW$27, DW_AT_TI_begin_column(0x10)
	.dwattr $C$DW$27, DW_AT_TI_interrupt
	.dwattr $C$DW$27, DW_AT_TI_max_frame_size(-6)
	.dwpsn	file "C:/TI/c2000/C2000Ware_4_00_00_00/device_support/f2837xd/common/source/F2837xD_DefaultISR.c",line 537,column 1,is_stmt,address _WAKE_ISR,isa 0

	.dwfde $C$DW$CIE, _WAKE_ISR
;----------------------------------------------------------------------
; 536 | interrupt void WAKE_ISR(void)                                          
; 538 | //                                                                     
; 539 | // Insert ISR Code here                                                
; 540 | //                                                                     
; 542 | //                                                                     
; 543 | // To receive more interrupts from this PIE group,                     
; 544 | // acknowledge this interrupt.                                         
; 545 | // PieCtrlRegs.PIEACK.all = PIEACK_GROUP1;                             
; 546 | //                                                                     
; 548 | //                                                                     
; 549 | // Next two lines for debug only to halt the processor here            
; 550 | // Remove after inserting ISR Code                                     
; 551 | //                                                                     
;----------------------------------------------------------------------

;***************************************************************
;* FNAME: _WAKE_ISR                     FR SIZE:   4           *
;*                                                             *
;* FUNCTION ENVIRONMENT                                        *
;*                                                             *
;* FUNCTION PROPERTIES                                         *
;*                            0 Parameter,  0 Auto,  4 SOE     *
;***************************************************************

_WAKE_ISR:
	.dwcfi	cfa_offset, -2
	.dwcfi	save_reg_to_mem, 26, 0
        ASP       ; [CPU_ALU] 
        PUSH      RB                    ; [CPU_FPU] 
	.dwcfi	save_reg_to_mem, 74, 4
	.dwcfi	cfa_offset, -4
        MOV32     *SP++,STF             ; [CPU_FPU] 
	.dwcfi	save_reg_to_mem, 40, 6
	.dwcfi	cfa_offset, -6
        SETFLG    RNDF32=1, RNDF64=1    ; [CPU_FPU] 
        CLRC      PAGE0,OVM             ; [CPU_ALU] 
        CLRC      AMODE                 ; [CPU_ALU] 
	.dwpsn	file "C:/TI/c2000/C2000Ware_4_00_00_00/device_support/f2837xd/common/source/F2837xD_DefaultISR.c",line 552,column 5,is_stmt,isa 0
;----------------------------------------------------------------------
; 552 | asm ("      ESTOP0");                                                  
;----------------------------------------------------------------------
      ESTOP0
$C$L27:    
	.dwpsn	file "C:/TI/c2000/C2000Ware_4_00_00_00/device_support/f2837xd/common/source/F2837xD_DefaultISR.c",line 553,column 5,is_stmt,isa 0
;----------------------------------------------------------------------
; 553 | for(;;);                                                               
;----------------------------------------------------------------------
        B         $C$L27,UNC            ; [CPU_ALU] |553| 
        ; branch occurs ; [] |553| 
	.dwattr $C$DW$27, DW_AT_TI_end_file("C:/TI/c2000/C2000Ware_4_00_00_00/device_support/f2837xd/common/source/F2837xD_DefaultISR.c")
	.dwattr $C$DW$27, DW_AT_TI_end_line(0x22a)
	.dwattr $C$DW$27, DW_AT_TI_end_column(0x01)
	.dwendentry
	.dwendtag $C$DW$27

	.sect	".text:retain"
	.retain
	.retainrefs
	.global	_EPWM1_TZ_ISR

$C$DW$28	.dwtag  DW_TAG_subprogram
	.dwattr $C$DW$28, DW_AT_name("EPWM1_TZ_ISR")
	.dwattr $C$DW$28, DW_AT_low_pc(_EPWM1_TZ_ISR)
	.dwattr $C$DW$28, DW_AT_high_pc(0x00)
	.dwattr $C$DW$28, DW_AT_TI_symbol_name("_EPWM1_TZ_ISR")
	.dwattr $C$DW$28, DW_AT_external
	.dwattr $C$DW$28, DW_AT_TI_begin_file("C:/TI/c2000/C2000Ware_4_00_00_00/device_support/f2837xd/common/source/F2837xD_DefaultISR.c")
	.dwattr $C$DW$28, DW_AT_TI_begin_line(0x22f)
	.dwattr $C$DW$28, DW_AT_TI_begin_column(0x10)
	.dwattr $C$DW$28, DW_AT_TI_interrupt
	.dwattr $C$DW$28, DW_AT_TI_max_frame_size(-6)
	.dwpsn	file "C:/TI/c2000/C2000Ware_4_00_00_00/device_support/f2837xd/common/source/F2837xD_DefaultISR.c",line 560,column 1,is_stmt,address _EPWM1_TZ_ISR,isa 0

	.dwfde $C$DW$CIE, _EPWM1_TZ_ISR
;----------------------------------------------------------------------
; 559 | interrupt void EPWM1_TZ_ISR(void)                                      
; 561 | //                                                                     
; 562 | // Insert ISR Code here                                                
; 563 | //                                                                     
; 565 | //                                                                     
; 566 | // To receive more interrupts from this PIE group,                     
; 567 | // acknowledge this interrupt.                                         
; 568 | // PieCtrlRegs.PIEACK.all = PIEACK_GROUP2;                             
; 569 | //                                                                     
; 571 | //                                                                     
; 572 | // Next two lines for debug only to halt the processor here            
; 573 | // Remove after inserting ISR Code                                     
; 574 | //                                                                     
;----------------------------------------------------------------------

;***************************************************************
;* FNAME: _EPWM1_TZ_ISR                 FR SIZE:   4           *
;*                                                             *
;* FUNCTION ENVIRONMENT                                        *
;*                                                             *
;* FUNCTION PROPERTIES                                         *
;*                            0 Parameter,  0 Auto,  4 SOE     *
;***************************************************************

_EPWM1_TZ_ISR:
	.dwcfi	cfa_offset, -2
	.dwcfi	save_reg_to_mem, 26, 0
        ASP       ; [CPU_ALU] 
        PUSH      RB                    ; [CPU_FPU] 
	.dwcfi	save_reg_to_mem, 74, 4
	.dwcfi	cfa_offset, -4
        MOV32     *SP++,STF             ; [CPU_FPU] 
	.dwcfi	save_reg_to_mem, 40, 6
	.dwcfi	cfa_offset, -6
        SETFLG    RNDF32=1, RNDF64=1    ; [CPU_FPU] 
        CLRC      PAGE0,OVM             ; [CPU_ALU] 
        CLRC      AMODE                 ; [CPU_ALU] 
	.dwpsn	file "C:/TI/c2000/C2000Ware_4_00_00_00/device_support/f2837xd/common/source/F2837xD_DefaultISR.c",line 575,column 5,is_stmt,isa 0
;----------------------------------------------------------------------
; 575 | asm ("      ESTOP0");                                                  
;----------------------------------------------------------------------
      ESTOP0
$C$L28:    
	.dwpsn	file "C:/TI/c2000/C2000Ware_4_00_00_00/device_support/f2837xd/common/source/F2837xD_DefaultISR.c",line 576,column 5,is_stmt,isa 0
;----------------------------------------------------------------------
; 576 | for(;;);                                                               
;----------------------------------------------------------------------
        B         $C$L28,UNC            ; [CPU_ALU] |576| 
        ; branch occurs ; [] |576| 
	.dwattr $C$DW$28, DW_AT_TI_end_file("C:/TI/c2000/C2000Ware_4_00_00_00/device_support/f2837xd/common/source/F2837xD_DefaultISR.c")
	.dwattr $C$DW$28, DW_AT_TI_end_line(0x241)
	.dwattr $C$DW$28, DW_AT_TI_end_column(0x01)
	.dwendentry
	.dwendtag $C$DW$28

	.sect	".text:retain"
	.retain
	.retainrefs
	.global	_EPWM2_TZ_ISR

$C$DW$29	.dwtag  DW_TAG_subprogram
	.dwattr $C$DW$29, DW_AT_name("EPWM2_TZ_ISR")
	.dwattr $C$DW$29, DW_AT_low_pc(_EPWM2_TZ_ISR)
	.dwattr $C$DW$29, DW_AT_high_pc(0x00)
	.dwattr $C$DW$29, DW_AT_TI_symbol_name("_EPWM2_TZ_ISR")
	.dwattr $C$DW$29, DW_AT_external
	.dwattr $C$DW$29, DW_AT_TI_begin_file("C:/TI/c2000/C2000Ware_4_00_00_00/device_support/f2837xd/common/source/F2837xD_DefaultISR.c")
	.dwattr $C$DW$29, DW_AT_TI_begin_line(0x246)
	.dwattr $C$DW$29, DW_AT_TI_begin_column(0x10)
	.dwattr $C$DW$29, DW_AT_TI_interrupt
	.dwattr $C$DW$29, DW_AT_TI_max_frame_size(-6)
	.dwpsn	file "C:/TI/c2000/C2000Ware_4_00_00_00/device_support/f2837xd/common/source/F2837xD_DefaultISR.c",line 583,column 1,is_stmt,address _EPWM2_TZ_ISR,isa 0

	.dwfde $C$DW$CIE, _EPWM2_TZ_ISR
;----------------------------------------------------------------------
; 582 | interrupt void EPWM2_TZ_ISR(void)                                      
; 584 | //                                                                     
; 585 | // Insert ISR Code here                                                
; 586 | //                                                                     
; 588 | //                                                                     
; 589 | // To receive more interrupts from this PIE group,                     
; 590 | // acknowledge this interrupt.                                         
; 591 | // PieCtrlRegs.PIEACK.all = PIEACK_GROUP2;                             
; 592 | //                                                                     
; 594 | //                                                                     
; 595 | // Next two lines for debug only to halt the processor here            
; 596 | // Remove after inserting ISR Code                                     
; 597 | //                                                                     
;----------------------------------------------------------------------

;***************************************************************
;* FNAME: _EPWM2_TZ_ISR                 FR SIZE:   4           *
;*                                                             *
;* FUNCTION ENVIRONMENT                                        *
;*                                                             *
;* FUNCTION PROPERTIES                                         *
;*                            0 Parameter,  0 Auto,  4 SOE     *
;***************************************************************

_EPWM2_TZ_ISR:
	.dwcfi	cfa_offset, -2
	.dwcfi	save_reg_to_mem, 26, 0
        ASP       ; [CPU_ALU] 
        PUSH      RB                    ; [CPU_FPU] 
	.dwcfi	save_reg_to_mem, 74, 4
	.dwcfi	cfa_offset, -4
        MOV32     *SP++,STF             ; [CPU_FPU] 
	.dwcfi	save_reg_to_mem, 40, 6
	.dwcfi	cfa_offset, -6
        SETFLG    RNDF32=1, RNDF64=1    ; [CPU_FPU] 
        CLRC      PAGE0,OVM             ; [CPU_ALU] 
        CLRC      AMODE                 ; [CPU_ALU] 
	.dwpsn	file "C:/TI/c2000/C2000Ware_4_00_00_00/device_support/f2837xd/common/source/F2837xD_DefaultISR.c",line 598,column 5,is_stmt,isa 0
;----------------------------------------------------------------------
; 598 | asm ("      ESTOP0");                                                  
;----------------------------------------------------------------------
      ESTOP0
$C$L29:    
	.dwpsn	file "C:/TI/c2000/C2000Ware_4_00_00_00/device_support/f2837xd/common/source/F2837xD_DefaultISR.c",line 599,column 5,is_stmt,isa 0
;----------------------------------------------------------------------
; 599 | for(;;);                                                               
;----------------------------------------------------------------------
        B         $C$L29,UNC            ; [CPU_ALU] |599| 
        ; branch occurs ; [] |599| 
	.dwattr $C$DW$29, DW_AT_TI_end_file("C:/TI/c2000/C2000Ware_4_00_00_00/device_support/f2837xd/common/source/F2837xD_DefaultISR.c")
	.dwattr $C$DW$29, DW_AT_TI_end_line(0x258)
	.dwattr $C$DW$29, DW_AT_TI_end_column(0x01)
	.dwendentry
	.dwendtag $C$DW$29

	.sect	".text:retain"
	.retain
	.retainrefs
	.global	_EPWM3_TZ_ISR

$C$DW$30	.dwtag  DW_TAG_subprogram
	.dwattr $C$DW$30, DW_AT_name("EPWM3_TZ_ISR")
	.dwattr $C$DW$30, DW_AT_low_pc(_EPWM3_TZ_ISR)
	.dwattr $C$DW$30, DW_AT_high_pc(0x00)
	.dwattr $C$DW$30, DW_AT_TI_symbol_name("_EPWM3_TZ_ISR")
	.dwattr $C$DW$30, DW_AT_external
	.dwattr $C$DW$30, DW_AT_TI_begin_file("C:/TI/c2000/C2000Ware_4_00_00_00/device_support/f2837xd/common/source/F2837xD_DefaultISR.c")
	.dwattr $C$DW$30, DW_AT_TI_begin_line(0x25d)
	.dwattr $C$DW$30, DW_AT_TI_begin_column(0x10)
	.dwattr $C$DW$30, DW_AT_TI_interrupt
	.dwattr $C$DW$30, DW_AT_TI_max_frame_size(-6)
	.dwpsn	file "C:/TI/c2000/C2000Ware_4_00_00_00/device_support/f2837xd/common/source/F2837xD_DefaultISR.c",line 606,column 1,is_stmt,address _EPWM3_TZ_ISR,isa 0

	.dwfde $C$DW$CIE, _EPWM3_TZ_ISR
;----------------------------------------------------------------------
; 605 | interrupt void EPWM3_TZ_ISR(void)                                      
; 607 | //                                                                     
; 608 | // Insert ISR Code here                                                
; 609 | //                                                                     
; 611 | //                                                                     
; 612 | // To receive more interrupts from this PIE group,                     
; 613 | // acknowledge this interrupt.                                         
; 614 | // PieCtrlRegs.PIEACK.all = PIEACK_GROUP2;                             
; 615 | //                                                                     
; 617 | //                                                                     
; 618 | // Next two lines for debug only to halt the processor here            
; 619 | // Remove after inserting ISR Code                                     
; 620 | //                                                                     
;----------------------------------------------------------------------

;***************************************************************
;* FNAME: _EPWM3_TZ_ISR                 FR SIZE:   4           *
;*                                                             *
;* FUNCTION ENVIRONMENT                                        *
;*                                                             *
;* FUNCTION PROPERTIES                                         *
;*                            0 Parameter,  0 Auto,  4 SOE     *
;***************************************************************

_EPWM3_TZ_ISR:
	.dwcfi	cfa_offset, -2
	.dwcfi	save_reg_to_mem, 26, 0
        ASP       ; [CPU_ALU] 
        PUSH      RB                    ; [CPU_FPU] 
	.dwcfi	save_reg_to_mem, 74, 4
	.dwcfi	cfa_offset, -4
        MOV32     *SP++,STF             ; [CPU_FPU] 
	.dwcfi	save_reg_to_mem, 40, 6
	.dwcfi	cfa_offset, -6
        SETFLG    RNDF32=1, RNDF64=1    ; [CPU_FPU] 
        CLRC      PAGE0,OVM             ; [CPU_ALU] 
        CLRC      AMODE                 ; [CPU_ALU] 
	.dwpsn	file "C:/TI/c2000/C2000Ware_4_00_00_00/device_support/f2837xd/common/source/F2837xD_DefaultISR.c",line 621,column 5,is_stmt,isa 0
;----------------------------------------------------------------------
; 621 | asm ("      ESTOP0");                                                  
;----------------------------------------------------------------------
      ESTOP0
$C$L30:    
	.dwpsn	file "C:/TI/c2000/C2000Ware_4_00_00_00/device_support/f2837xd/common/source/F2837xD_DefaultISR.c",line 622,column 5,is_stmt,isa 0
;----------------------------------------------------------------------
; 622 | for(;;);                                                               
;----------------------------------------------------------------------
        B         $C$L30,UNC            ; [CPU_ALU] |622| 
        ; branch occurs ; [] |622| 
	.dwattr $C$DW$30, DW_AT_TI_end_file("C:/TI/c2000/C2000Ware_4_00_00_00/device_support/f2837xd/common/source/F2837xD_DefaultISR.c")
	.dwattr $C$DW$30, DW_AT_TI_end_line(0x26f)
	.dwattr $C$DW$30, DW_AT_TI_end_column(0x01)
	.dwendentry
	.dwendtag $C$DW$30

	.sect	".text:retain"
	.retain
	.retainrefs
	.global	_EPWM4_TZ_ISR

$C$DW$31	.dwtag  DW_TAG_subprogram
	.dwattr $C$DW$31, DW_AT_name("EPWM4_TZ_ISR")
	.dwattr $C$DW$31, DW_AT_low_pc(_EPWM4_TZ_ISR)
	.dwattr $C$DW$31, DW_AT_high_pc(0x00)
	.dwattr $C$DW$31, DW_AT_TI_symbol_name("_EPWM4_TZ_ISR")
	.dwattr $C$DW$31, DW_AT_external
	.dwattr $C$DW$31, DW_AT_TI_begin_file("C:/TI/c2000/C2000Ware_4_00_00_00/device_support/f2837xd/common/source/F2837xD_DefaultISR.c")
	.dwattr $C$DW$31, DW_AT_TI_begin_line(0x274)
	.dwattr $C$DW$31, DW_AT_TI_begin_column(0x10)
	.dwattr $C$DW$31, DW_AT_TI_interrupt
	.dwattr $C$DW$31, DW_AT_TI_max_frame_size(-6)
	.dwpsn	file "C:/TI/c2000/C2000Ware_4_00_00_00/device_support/f2837xd/common/source/F2837xD_DefaultISR.c",line 629,column 1,is_stmt,address _EPWM4_TZ_ISR,isa 0

	.dwfde $C$DW$CIE, _EPWM4_TZ_ISR
;----------------------------------------------------------------------
; 628 | interrupt void EPWM4_TZ_ISR(void)                                      
; 630 | //                                                                     
; 631 | // Insert ISR Code here                                                
; 632 | //                                                                     
; 634 | //                                                                     
; 635 | // To receive more interrupts from this PIE group,                     
; 636 | // acknowledge this interrupt.                                         
; 637 | // PieCtrlRegs.PIEACK.all = PIEACK_GROUP2;                             
; 638 | //                                                                     
; 640 | //                                                                     
; 641 | // Next two lines for debug only to halt the processor here            
; 642 | // Remove after inserting ISR Code                                     
; 643 | //                                                                     
;----------------------------------------------------------------------

;***************************************************************
;* FNAME: _EPWM4_TZ_ISR                 FR SIZE:   4           *
;*                                                             *
;* FUNCTION ENVIRONMENT                                        *
;*                                                             *
;* FUNCTION PROPERTIES                                         *
;*                            0 Parameter,  0 Auto,  4 SOE     *
;***************************************************************

_EPWM4_TZ_ISR:
	.dwcfi	cfa_offset, -2
	.dwcfi	save_reg_to_mem, 26, 0
        ASP       ; [CPU_ALU] 
        PUSH      RB                    ; [CPU_FPU] 
	.dwcfi	save_reg_to_mem, 74, 4
	.dwcfi	cfa_offset, -4
        MOV32     *SP++,STF             ; [CPU_FPU] 
	.dwcfi	save_reg_to_mem, 40, 6
	.dwcfi	cfa_offset, -6
        SETFLG    RNDF32=1, RNDF64=1    ; [CPU_FPU] 
        CLRC      PAGE0,OVM             ; [CPU_ALU] 
        CLRC      AMODE                 ; [CPU_ALU] 
	.dwpsn	file "C:/TI/c2000/C2000Ware_4_00_00_00/device_support/f2837xd/common/source/F2837xD_DefaultISR.c",line 644,column 5,is_stmt,isa 0
;----------------------------------------------------------------------
; 644 | asm ("      ESTOP0");                                                  
;----------------------------------------------------------------------
      ESTOP0
$C$L31:    
	.dwpsn	file "C:/TI/c2000/C2000Ware_4_00_00_00/device_support/f2837xd/common/source/F2837xD_DefaultISR.c",line 645,column 5,is_stmt,isa 0
;----------------------------------------------------------------------
; 645 | for(;;);                                                               
;----------------------------------------------------------------------
        B         $C$L31,UNC            ; [CPU_ALU] |645| 
        ; branch occurs ; [] |645| 
	.dwattr $C$DW$31, DW_AT_TI_end_file("C:/TI/c2000/C2000Ware_4_00_00_00/device_support/f2837xd/common/source/F2837xD_DefaultISR.c")
	.dwattr $C$DW$31, DW_AT_TI_end_line(0x286)
	.dwattr $C$DW$31, DW_AT_TI_end_column(0x01)
	.dwendentry
	.dwendtag $C$DW$31

	.sect	".text:retain"
	.retain
	.retainrefs
	.global	_EPWM5_TZ_ISR

$C$DW$32	.dwtag  DW_TAG_subprogram
	.dwattr $C$DW$32, DW_AT_name("EPWM5_TZ_ISR")
	.dwattr $C$DW$32, DW_AT_low_pc(_EPWM5_TZ_ISR)
	.dwattr $C$DW$32, DW_AT_high_pc(0x00)
	.dwattr $C$DW$32, DW_AT_TI_symbol_name("_EPWM5_TZ_ISR")
	.dwattr $C$DW$32, DW_AT_external
	.dwattr $C$DW$32, DW_AT_TI_begin_file("C:/TI/c2000/C2000Ware_4_00_00_00/device_support/f2837xd/common/source/F2837xD_DefaultISR.c")
	.dwattr $C$DW$32, DW_AT_TI_begin_line(0x28b)
	.dwattr $C$DW$32, DW_AT_TI_begin_column(0x10)
	.dwattr $C$DW$32, DW_AT_TI_interrupt
	.dwattr $C$DW$32, DW_AT_TI_max_frame_size(-6)
	.dwpsn	file "C:/TI/c2000/C2000Ware_4_00_00_00/device_support/f2837xd/common/source/F2837xD_DefaultISR.c",line 652,column 1,is_stmt,address _EPWM5_TZ_ISR,isa 0

	.dwfde $C$DW$CIE, _EPWM5_TZ_ISR
;----------------------------------------------------------------------
; 651 | interrupt void EPWM5_TZ_ISR(void)                                      
; 653 | //                                                                     
; 654 | // Insert ISR Code here                                                
; 655 | //                                                                     
; 657 | //                                                                     
; 658 | // To receive more interrupts from this PIE group,                     
; 659 | // acknowledge this interrupt.                                         
; 660 | // PieCtrlRegs.PIEACK.all = PIEACK_GROUP2;                             
; 661 | //                                                                     
; 663 | //                                                                     
; 664 | // Next two lines for debug only to halt the processor here            
; 665 | // Remove after inserting ISR Code                                     
; 666 | //                                                                     
;----------------------------------------------------------------------

;***************************************************************
;* FNAME: _EPWM5_TZ_ISR                 FR SIZE:   4           *
;*                                                             *
;* FUNCTION ENVIRONMENT                                        *
;*                                                             *
;* FUNCTION PROPERTIES                                         *
;*                            0 Parameter,  0 Auto,  4 SOE     *
;***************************************************************

_EPWM5_TZ_ISR:
	.dwcfi	cfa_offset, -2
	.dwcfi	save_reg_to_mem, 26, 0
        ASP       ; [CPU_ALU] 
        PUSH      RB                    ; [CPU_FPU] 
	.dwcfi	save_reg_to_mem, 74, 4
	.dwcfi	cfa_offset, -4
        MOV32     *SP++,STF             ; [CPU_FPU] 
	.dwcfi	save_reg_to_mem, 40, 6
	.dwcfi	cfa_offset, -6
        SETFLG    RNDF32=1, RNDF64=1    ; [CPU_FPU] 
        CLRC      PAGE0,OVM             ; [CPU_ALU] 
        CLRC      AMODE                 ; [CPU_ALU] 
	.dwpsn	file "C:/TI/c2000/C2000Ware_4_00_00_00/device_support/f2837xd/common/source/F2837xD_DefaultISR.c",line 667,column 5,is_stmt,isa 0
;----------------------------------------------------------------------
; 667 | asm ("      ESTOP0");                                                  
;----------------------------------------------------------------------
      ESTOP0
$C$L32:    
	.dwpsn	file "C:/TI/c2000/C2000Ware_4_00_00_00/device_support/f2837xd/common/source/F2837xD_DefaultISR.c",line 668,column 5,is_stmt,isa 0
;----------------------------------------------------------------------
; 668 | for(;;);                                                               
;----------------------------------------------------------------------
        B         $C$L32,UNC            ; [CPU_ALU] |668| 
        ; branch occurs ; [] |668| 
	.dwattr $C$DW$32, DW_AT_TI_end_file("C:/TI/c2000/C2000Ware_4_00_00_00/device_support/f2837xd/common/source/F2837xD_DefaultISR.c")
	.dwattr $C$DW$32, DW_AT_TI_end_line(0x29d)
	.dwattr $C$DW$32, DW_AT_TI_end_column(0x01)
	.dwendentry
	.dwendtag $C$DW$32

	.sect	".text:retain"
	.retain
	.retainrefs
	.global	_EPWM6_TZ_ISR

$C$DW$33	.dwtag  DW_TAG_subprogram
	.dwattr $C$DW$33, DW_AT_name("EPWM6_TZ_ISR")
	.dwattr $C$DW$33, DW_AT_low_pc(_EPWM6_TZ_ISR)
	.dwattr $C$DW$33, DW_AT_high_pc(0x00)
	.dwattr $C$DW$33, DW_AT_TI_symbol_name("_EPWM6_TZ_ISR")
	.dwattr $C$DW$33, DW_AT_external
	.dwattr $C$DW$33, DW_AT_TI_begin_file("C:/TI/c2000/C2000Ware_4_00_00_00/device_support/f2837xd/common/source/F2837xD_DefaultISR.c")
	.dwattr $C$DW$33, DW_AT_TI_begin_line(0x2a2)
	.dwattr $C$DW$33, DW_AT_TI_begin_column(0x10)
	.dwattr $C$DW$33, DW_AT_TI_interrupt
	.dwattr $C$DW$33, DW_AT_TI_max_frame_size(-6)
	.dwpsn	file "C:/TI/c2000/C2000Ware_4_00_00_00/device_support/f2837xd/common/source/F2837xD_DefaultISR.c",line 675,column 1,is_stmt,address _EPWM6_TZ_ISR,isa 0

	.dwfde $C$DW$CIE, _EPWM6_TZ_ISR
;----------------------------------------------------------------------
; 674 | interrupt void EPWM6_TZ_ISR(void)                                      
; 676 | //                                                                     
; 677 | // Insert ISR Code here                                                
; 678 | //                                                                     
; 680 | //                                                                     
; 681 | // To receive more interrupts from this PIE group,                     
; 682 | // acknowledge this interrupt.                                         
; 683 | // PieCtrlRegs.PIEACK.all = PIEACK_GROUP2;                             
; 684 | //                                                                     
; 686 | //                                                                     
; 687 | // Next two lines for debug only to halt the processor here            
; 688 | // Remove after inserting ISR Code                                     
; 689 | //                                                                     
;----------------------------------------------------------------------

;***************************************************************
;* FNAME: _EPWM6_TZ_ISR                 FR SIZE:   4           *
;*                                                             *
;* FUNCTION ENVIRONMENT                                        *
;*                                                             *
;* FUNCTION PROPERTIES                                         *
;*                            0 Parameter,  0 Auto,  4 SOE     *
;***************************************************************

_EPWM6_TZ_ISR:
	.dwcfi	cfa_offset, -2
	.dwcfi	save_reg_to_mem, 26, 0
        ASP       ; [CPU_ALU] 
        PUSH      RB                    ; [CPU_FPU] 
	.dwcfi	save_reg_to_mem, 74, 4
	.dwcfi	cfa_offset, -4
        MOV32     *SP++,STF             ; [CPU_FPU] 
	.dwcfi	save_reg_to_mem, 40, 6
	.dwcfi	cfa_offset, -6
        SETFLG    RNDF32=1, RNDF64=1    ; [CPU_FPU] 
        CLRC      PAGE0,OVM             ; [CPU_ALU] 
        CLRC      AMODE                 ; [CPU_ALU] 
	.dwpsn	file "C:/TI/c2000/C2000Ware_4_00_00_00/device_support/f2837xd/common/source/F2837xD_DefaultISR.c",line 690,column 5,is_stmt,isa 0
;----------------------------------------------------------------------
; 690 | asm ("      ESTOP0");                                                  
;----------------------------------------------------------------------
      ESTOP0
$C$L33:    
	.dwpsn	file "C:/TI/c2000/C2000Ware_4_00_00_00/device_support/f2837xd/common/source/F2837xD_DefaultISR.c",line 691,column 5,is_stmt,isa 0
;----------------------------------------------------------------------
; 691 | for(;;);                                                               
;----------------------------------------------------------------------
        B         $C$L33,UNC            ; [CPU_ALU] |691| 
        ; branch occurs ; [] |691| 
	.dwattr $C$DW$33, DW_AT_TI_end_file("C:/TI/c2000/C2000Ware_4_00_00_00/device_support/f2837xd/common/source/F2837xD_DefaultISR.c")
	.dwattr $C$DW$33, DW_AT_TI_end_line(0x2b4)
	.dwattr $C$DW$33, DW_AT_TI_end_column(0x01)
	.dwendentry
	.dwendtag $C$DW$33

	.sect	".text:retain"
	.retain
	.retainrefs
	.global	_EPWM7_TZ_ISR

$C$DW$34	.dwtag  DW_TAG_subprogram
	.dwattr $C$DW$34, DW_AT_name("EPWM7_TZ_ISR")
	.dwattr $C$DW$34, DW_AT_low_pc(_EPWM7_TZ_ISR)
	.dwattr $C$DW$34, DW_AT_high_pc(0x00)
	.dwattr $C$DW$34, DW_AT_TI_symbol_name("_EPWM7_TZ_ISR")
	.dwattr $C$DW$34, DW_AT_external
	.dwattr $C$DW$34, DW_AT_TI_begin_file("C:/TI/c2000/C2000Ware_4_00_00_00/device_support/f2837xd/common/source/F2837xD_DefaultISR.c")
	.dwattr $C$DW$34, DW_AT_TI_begin_line(0x2b9)
	.dwattr $C$DW$34, DW_AT_TI_begin_column(0x10)
	.dwattr $C$DW$34, DW_AT_TI_interrupt
	.dwattr $C$DW$34, DW_AT_TI_max_frame_size(-6)
	.dwpsn	file "C:/TI/c2000/C2000Ware_4_00_00_00/device_support/f2837xd/common/source/F2837xD_DefaultISR.c",line 698,column 1,is_stmt,address _EPWM7_TZ_ISR,isa 0

	.dwfde $C$DW$CIE, _EPWM7_TZ_ISR
;----------------------------------------------------------------------
; 697 | interrupt void EPWM7_TZ_ISR(void)                                      
; 699 | //                                                                     
; 700 | // Insert ISR Code here                                                
; 701 | //                                                                     
; 703 | //                                                                     
; 704 | // To receive more interrupts from this PIE group,                     
; 705 | // acknowledge this interrupt.                                         
; 706 | // PieCtrlRegs.PIEACK.all = PIEACK_GROUP2;                             
; 707 | //                                                                     
; 709 | //                                                                     
; 710 | // Next two lines for debug only to halt the processor here            
; 711 | // Remove after inserting ISR Code                                     
; 712 | //                                                                     
;----------------------------------------------------------------------

;***************************************************************
;* FNAME: _EPWM7_TZ_ISR                 FR SIZE:   4           *
;*                                                             *
;* FUNCTION ENVIRONMENT                                        *
;*                                                             *
;* FUNCTION PROPERTIES                                         *
;*                            0 Parameter,  0 Auto,  4 SOE     *
;***************************************************************

_EPWM7_TZ_ISR:
	.dwcfi	cfa_offset, -2
	.dwcfi	save_reg_to_mem, 26, 0
        ASP       ; [CPU_ALU] 
        PUSH      RB                    ; [CPU_FPU] 
	.dwcfi	save_reg_to_mem, 74, 4
	.dwcfi	cfa_offset, -4
        MOV32     *SP++,STF             ; [CPU_FPU] 
	.dwcfi	save_reg_to_mem, 40, 6
	.dwcfi	cfa_offset, -6
        SETFLG    RNDF32=1, RNDF64=1    ; [CPU_FPU] 
        CLRC      PAGE0,OVM             ; [CPU_ALU] 
        CLRC      AMODE                 ; [CPU_ALU] 
	.dwpsn	file "C:/TI/c2000/C2000Ware_4_00_00_00/device_support/f2837xd/common/source/F2837xD_DefaultISR.c",line 713,column 5,is_stmt,isa 0
;----------------------------------------------------------------------
; 713 | asm ("      ESTOP0");                                                  
;----------------------------------------------------------------------
      ESTOP0
$C$L34:    
	.dwpsn	file "C:/TI/c2000/C2000Ware_4_00_00_00/device_support/f2837xd/common/source/F2837xD_DefaultISR.c",line 714,column 5,is_stmt,isa 0
;----------------------------------------------------------------------
; 714 | for(;;);                                                               
;----------------------------------------------------------------------
        B         $C$L34,UNC            ; [CPU_ALU] |714| 
        ; branch occurs ; [] |714| 
	.dwattr $C$DW$34, DW_AT_TI_end_file("C:/TI/c2000/C2000Ware_4_00_00_00/device_support/f2837xd/common/source/F2837xD_DefaultISR.c")
	.dwattr $C$DW$34, DW_AT_TI_end_line(0x2cb)
	.dwattr $C$DW$34, DW_AT_TI_end_column(0x01)
	.dwendentry
	.dwendtag $C$DW$34

	.sect	".text:retain"
	.retain
	.retainrefs
	.global	_EPWM8_TZ_ISR

$C$DW$35	.dwtag  DW_TAG_subprogram
	.dwattr $C$DW$35, DW_AT_name("EPWM8_TZ_ISR")
	.dwattr $C$DW$35, DW_AT_low_pc(_EPWM8_TZ_ISR)
	.dwattr $C$DW$35, DW_AT_high_pc(0x00)
	.dwattr $C$DW$35, DW_AT_TI_symbol_name("_EPWM8_TZ_ISR")
	.dwattr $C$DW$35, DW_AT_external
	.dwattr $C$DW$35, DW_AT_TI_begin_file("C:/TI/c2000/C2000Ware_4_00_00_00/device_support/f2837xd/common/source/F2837xD_DefaultISR.c")
	.dwattr $C$DW$35, DW_AT_TI_begin_line(0x2d0)
	.dwattr $C$DW$35, DW_AT_TI_begin_column(0x10)
	.dwattr $C$DW$35, DW_AT_TI_interrupt
	.dwattr $C$DW$35, DW_AT_TI_max_frame_size(-6)
	.dwpsn	file "C:/TI/c2000/C2000Ware_4_00_00_00/device_support/f2837xd/common/source/F2837xD_DefaultISR.c",line 721,column 1,is_stmt,address _EPWM8_TZ_ISR,isa 0

	.dwfde $C$DW$CIE, _EPWM8_TZ_ISR
;----------------------------------------------------------------------
; 720 | interrupt void EPWM8_TZ_ISR(void)                                      
; 722 | //                                                                     
; 723 | // Insert ISR Code here                                                
; 724 | //                                                                     
; 726 | //                                                                     
; 727 | // To receive more interrupts from this PIE group,                     
; 728 | // acknowledge this interrupt.                                         
; 729 | // PieCtrlRegs.PIEACK.all = PIEACK_GROUP2;                             
; 730 | //                                                                     
; 732 | //                                                                     
; 733 | // Next two lines for debug only to halt the processor here            
; 734 | // Remove after inserting ISR Code                                     
; 735 | //                                                                     
;----------------------------------------------------------------------

;***************************************************************
;* FNAME: _EPWM8_TZ_ISR                 FR SIZE:   4           *
;*                                                             *
;* FUNCTION ENVIRONMENT                                        *
;*                                                             *
;* FUNCTION PROPERTIES                                         *
;*                            0 Parameter,  0 Auto,  4 SOE     *
;***************************************************************

_EPWM8_TZ_ISR:
	.dwcfi	cfa_offset, -2
	.dwcfi	save_reg_to_mem, 26, 0
        ASP       ; [CPU_ALU] 
        PUSH      RB                    ; [CPU_FPU] 
	.dwcfi	save_reg_to_mem, 74, 4
	.dwcfi	cfa_offset, -4
        MOV32     *SP++,STF             ; [CPU_FPU] 
	.dwcfi	save_reg_to_mem, 40, 6
	.dwcfi	cfa_offset, -6
        SETFLG    RNDF32=1, RNDF64=1    ; [CPU_FPU] 
        CLRC      PAGE0,OVM             ; [CPU_ALU] 
        CLRC      AMODE                 ; [CPU_ALU] 
	.dwpsn	file "C:/TI/c2000/C2000Ware_4_00_00_00/device_support/f2837xd/common/source/F2837xD_DefaultISR.c",line 736,column 5,is_stmt,isa 0
;----------------------------------------------------------------------
; 736 | asm ("      ESTOP0");                                                  
;----------------------------------------------------------------------
      ESTOP0
$C$L35:    
	.dwpsn	file "C:/TI/c2000/C2000Ware_4_00_00_00/device_support/f2837xd/common/source/F2837xD_DefaultISR.c",line 737,column 5,is_stmt,isa 0
;----------------------------------------------------------------------
; 737 | for(;;);                                                               
;----------------------------------------------------------------------
        B         $C$L35,UNC            ; [CPU_ALU] |737| 
        ; branch occurs ; [] |737| 
	.dwattr $C$DW$35, DW_AT_TI_end_file("C:/TI/c2000/C2000Ware_4_00_00_00/device_support/f2837xd/common/source/F2837xD_DefaultISR.c")
	.dwattr $C$DW$35, DW_AT_TI_end_line(0x2e2)
	.dwattr $C$DW$35, DW_AT_TI_end_column(0x01)
	.dwendentry
	.dwendtag $C$DW$35

	.sect	".text:retain"
	.retain
	.retainrefs
	.global	_EPWM1_ISR

$C$DW$36	.dwtag  DW_TAG_subprogram
	.dwattr $C$DW$36, DW_AT_name("EPWM1_ISR")
	.dwattr $C$DW$36, DW_AT_low_pc(_EPWM1_ISR)
	.dwattr $C$DW$36, DW_AT_high_pc(0x00)
	.dwattr $C$DW$36, DW_AT_TI_symbol_name("_EPWM1_ISR")
	.dwattr $C$DW$36, DW_AT_external
	.dwattr $C$DW$36, DW_AT_TI_begin_file("C:/TI/c2000/C2000Ware_4_00_00_00/device_support/f2837xd/common/source/F2837xD_DefaultISR.c")
	.dwattr $C$DW$36, DW_AT_TI_begin_line(0x2e7)
	.dwattr $C$DW$36, DW_AT_TI_begin_column(0x10)
	.dwattr $C$DW$36, DW_AT_TI_interrupt
	.dwattr $C$DW$36, DW_AT_TI_max_frame_size(-6)
	.dwpsn	file "C:/TI/c2000/C2000Ware_4_00_00_00/device_support/f2837xd/common/source/F2837xD_DefaultISR.c",line 744,column 1,is_stmt,address _EPWM1_ISR,isa 0

	.dwfde $C$DW$CIE, _EPWM1_ISR
;----------------------------------------------------------------------
; 743 | interrupt void EPWM1_ISR(void)                                         
; 745 | //                                                                     
; 746 | // Insert ISR Code here                                                
; 747 | //                                                                     
; 749 | //                                                                     
; 750 | // To receive more interrupts from this PIE group,                     
; 751 | // acknowledge this interrupt.                                         
; 752 | // PieCtrlRegs.PIEACK.all = PIEACK_GROUP3;                             
; 753 | //                                                                     
; 755 | //                                                                     
; 756 | // Next two lines for debug only to halt the processor here            
; 757 | // Remove after inserting ISR Code                                     
; 758 | //                                                                     
;----------------------------------------------------------------------

;***************************************************************
;* FNAME: _EPWM1_ISR                    FR SIZE:   4           *
;*                                                             *
;* FUNCTION ENVIRONMENT                                        *
;*                                                             *
;* FUNCTION PROPERTIES                                         *
;*                            0 Parameter,  0 Auto,  4 SOE     *
;***************************************************************

_EPWM1_ISR:
	.dwcfi	cfa_offset, -2
	.dwcfi	save_reg_to_mem, 26, 0
        ASP       ; [CPU_ALU] 
        PUSH      RB                    ; [CPU_FPU] 
	.dwcfi	save_reg_to_mem, 74, 4
	.dwcfi	cfa_offset, -4
        MOV32     *SP++,STF             ; [CPU_FPU] 
	.dwcfi	save_reg_to_mem, 40, 6
	.dwcfi	cfa_offset, -6
        SETFLG    RNDF32=1, RNDF64=1    ; [CPU_FPU] 
        CLRC      PAGE0,OVM             ; [CPU_ALU] 
        CLRC      AMODE                 ; [CPU_ALU] 
	.dwpsn	file "C:/TI/c2000/C2000Ware_4_00_00_00/device_support/f2837xd/common/source/F2837xD_DefaultISR.c",line 759,column 5,is_stmt,isa 0
;----------------------------------------------------------------------
; 759 | asm ("      ESTOP0");                                                  
;----------------------------------------------------------------------
      ESTOP0
$C$L36:    
	.dwpsn	file "C:/TI/c2000/C2000Ware_4_00_00_00/device_support/f2837xd/common/source/F2837xD_DefaultISR.c",line 760,column 5,is_stmt,isa 0
;----------------------------------------------------------------------
; 760 | for(;;);                                                               
;----------------------------------------------------------------------
        B         $C$L36,UNC            ; [CPU_ALU] |760| 
        ; branch occurs ; [] |760| 
	.dwattr $C$DW$36, DW_AT_TI_end_file("C:/TI/c2000/C2000Ware_4_00_00_00/device_support/f2837xd/common/source/F2837xD_DefaultISR.c")
	.dwattr $C$DW$36, DW_AT_TI_end_line(0x2f9)
	.dwattr $C$DW$36, DW_AT_TI_end_column(0x01)
	.dwendentry
	.dwendtag $C$DW$36

	.sect	".text:retain"
	.retain
	.retainrefs
	.global	_EPWM2_ISR

$C$DW$37	.dwtag  DW_TAG_subprogram
	.dwattr $C$DW$37, DW_AT_name("EPWM2_ISR")
	.dwattr $C$DW$37, DW_AT_low_pc(_EPWM2_ISR)
	.dwattr $C$DW$37, DW_AT_high_pc(0x00)
	.dwattr $C$DW$37, DW_AT_TI_symbol_name("_EPWM2_ISR")
	.dwattr $C$DW$37, DW_AT_external
	.dwattr $C$DW$37, DW_AT_TI_begin_file("C:/TI/c2000/C2000Ware_4_00_00_00/device_support/f2837xd/common/source/F2837xD_DefaultISR.c")
	.dwattr $C$DW$37, DW_AT_TI_begin_line(0x2fe)
	.dwattr $C$DW$37, DW_AT_TI_begin_column(0x10)
	.dwattr $C$DW$37, DW_AT_TI_interrupt
	.dwattr $C$DW$37, DW_AT_TI_max_frame_size(-6)
	.dwpsn	file "C:/TI/c2000/C2000Ware_4_00_00_00/device_support/f2837xd/common/source/F2837xD_DefaultISR.c",line 767,column 1,is_stmt,address _EPWM2_ISR,isa 0

	.dwfde $C$DW$CIE, _EPWM2_ISR
;----------------------------------------------------------------------
; 766 | interrupt void EPWM2_ISR(void)                                         
; 768 | //                                                                     
; 769 | // Insert ISR Code here                                                
; 770 | //                                                                     
; 772 | //                                                                     
; 773 | // To receive more interrupts from this PIE group,                     
; 774 | // acknowledge this interrupt.                                         
; 775 | // PieCtrlRegs.PIEACK.all = PIEACK_GROUP3;                             
; 776 | //                                                                     
; 778 | //                                                                     
; 779 | // Next two lines for debug only to halt the processor here            
; 780 | // Remove after inserting ISR Code                                     
; 781 | //                                                                     
;----------------------------------------------------------------------

;***************************************************************
;* FNAME: _EPWM2_ISR                    FR SIZE:   4           *
;*                                                             *
;* FUNCTION ENVIRONMENT                                        *
;*                                                             *
;* FUNCTION PROPERTIES                                         *
;*                            0 Parameter,  0 Auto,  4 SOE     *
;***************************************************************

_EPWM2_ISR:
	.dwcfi	cfa_offset, -2
	.dwcfi	save_reg_to_mem, 26, 0
        ASP       ; [CPU_ALU] 
        PUSH      RB                    ; [CPU_FPU] 
	.dwcfi	save_reg_to_mem, 74, 4
	.dwcfi	cfa_offset, -4
        MOV32     *SP++,STF             ; [CPU_FPU] 
	.dwcfi	save_reg_to_mem, 40, 6
	.dwcfi	cfa_offset, -6
        SETFLG    RNDF32=1, RNDF64=1    ; [CPU_FPU] 
        CLRC      PAGE0,OVM             ; [CPU_ALU] 
        CLRC      AMODE                 ; [CPU_ALU] 
	.dwpsn	file "C:/TI/c2000/C2000Ware_4_00_00_00/device_support/f2837xd/common/source/F2837xD_DefaultISR.c",line 782,column 5,is_stmt,isa 0
;----------------------------------------------------------------------
; 782 | asm ("      ESTOP0");                                                  
;----------------------------------------------------------------------
      ESTOP0
$C$L37:    
	.dwpsn	file "C:/TI/c2000/C2000Ware_4_00_00_00/device_support/f2837xd/common/source/F2837xD_DefaultISR.c",line 783,column 5,is_stmt,isa 0
;----------------------------------------------------------------------
; 783 | for(;;);                                                               
;----------------------------------------------------------------------
        B         $C$L37,UNC            ; [CPU_ALU] |783| 
        ; branch occurs ; [] |783| 
	.dwattr $C$DW$37, DW_AT_TI_end_file("C:/TI/c2000/C2000Ware_4_00_00_00/device_support/f2837xd/common/source/F2837xD_DefaultISR.c")
	.dwattr $C$DW$37, DW_AT_TI_end_line(0x310)
	.dwattr $C$DW$37, DW_AT_TI_end_column(0x01)
	.dwendentry
	.dwendtag $C$DW$37

	.sect	".text:retain"
	.retain
	.retainrefs
	.global	_EPWM3_ISR

$C$DW$38	.dwtag  DW_TAG_subprogram
	.dwattr $C$DW$38, DW_AT_name("EPWM3_ISR")
	.dwattr $C$DW$38, DW_AT_low_pc(_EPWM3_ISR)
	.dwattr $C$DW$38, DW_AT_high_pc(0x00)
	.dwattr $C$DW$38, DW_AT_TI_symbol_name("_EPWM3_ISR")
	.dwattr $C$DW$38, DW_AT_external
	.dwattr $C$DW$38, DW_AT_TI_begin_file("C:/TI/c2000/C2000Ware_4_00_00_00/device_support/f2837xd/common/source/F2837xD_DefaultISR.c")
	.dwattr $C$DW$38, DW_AT_TI_begin_line(0x315)
	.dwattr $C$DW$38, DW_AT_TI_begin_column(0x10)
	.dwattr $C$DW$38, DW_AT_TI_interrupt
	.dwattr $C$DW$38, DW_AT_TI_max_frame_size(-6)
	.dwpsn	file "C:/TI/c2000/C2000Ware_4_00_00_00/device_support/f2837xd/common/source/F2837xD_DefaultISR.c",line 790,column 1,is_stmt,address _EPWM3_ISR,isa 0

	.dwfde $C$DW$CIE, _EPWM3_ISR
;----------------------------------------------------------------------
; 789 | interrupt void EPWM3_ISR(void)                                         
; 791 | //                                                                     
; 792 | // Insert ISR Code here                                                
; 793 | //                                                                     
; 795 | //                                                                     
; 796 | // To receive more interrupts from this PIE group,                     
; 797 | // acknowledge this interrupt.                                         
; 798 | // PieCtrlRegs.PIEACK.all = PIEACK_GROUP3;                             
; 799 | //                                                                     
; 801 | //                                                                     
; 802 | // Next two lines for debug only to halt the processor here            
; 803 | // Remove after inserting ISR Code                                     
; 804 | //                                                                     
;----------------------------------------------------------------------

;***************************************************************
;* FNAME: _EPWM3_ISR                    FR SIZE:   4           *
;*                                                             *
;* FUNCTION ENVIRONMENT                                        *
;*                                                             *
;* FUNCTION PROPERTIES                                         *
;*                            0 Parameter,  0 Auto,  4 SOE     *
;***************************************************************

_EPWM3_ISR:
	.dwcfi	cfa_offset, -2
	.dwcfi	save_reg_to_mem, 26, 0
        ASP       ; [CPU_ALU] 
        PUSH      RB                    ; [CPU_FPU] 
	.dwcfi	save_reg_to_mem, 74, 4
	.dwcfi	cfa_offset, -4
        MOV32     *SP++,STF             ; [CPU_FPU] 
	.dwcfi	save_reg_to_mem, 40, 6
	.dwcfi	cfa_offset, -6
        SETFLG    RNDF32=1, RNDF64=1    ; [CPU_FPU] 
        CLRC      PAGE0,OVM             ; [CPU_ALU] 
        CLRC      AMODE                 ; [CPU_ALU] 
	.dwpsn	file "C:/TI/c2000/C2000Ware_4_00_00_00/device_support/f2837xd/common/source/F2837xD_DefaultISR.c",line 805,column 5,is_stmt,isa 0
;----------------------------------------------------------------------
; 805 | asm ("      ESTOP0");                                                  
;----------------------------------------------------------------------
      ESTOP0
$C$L38:    
	.dwpsn	file "C:/TI/c2000/C2000Ware_4_00_00_00/device_support/f2837xd/common/source/F2837xD_DefaultISR.c",line 806,column 5,is_stmt,isa 0
;----------------------------------------------------------------------
; 806 | for(;;);                                                               
;----------------------------------------------------------------------
        B         $C$L38,UNC            ; [CPU_ALU] |806| 
        ; branch occurs ; [] |806| 
	.dwattr $C$DW$38, DW_AT_TI_end_file("C:/TI/c2000/C2000Ware_4_00_00_00/device_support/f2837xd/common/source/F2837xD_DefaultISR.c")
	.dwattr $C$DW$38, DW_AT_TI_end_line(0x327)
	.dwattr $C$DW$38, DW_AT_TI_end_column(0x01)
	.dwendentry
	.dwendtag $C$DW$38

	.sect	".text:retain"
	.retain
	.retainrefs
	.global	_EPWM4_ISR

$C$DW$39	.dwtag  DW_TAG_subprogram
	.dwattr $C$DW$39, DW_AT_name("EPWM4_ISR")
	.dwattr $C$DW$39, DW_AT_low_pc(_EPWM4_ISR)
	.dwattr $C$DW$39, DW_AT_high_pc(0x00)
	.dwattr $C$DW$39, DW_AT_TI_symbol_name("_EPWM4_ISR")
	.dwattr $C$DW$39, DW_AT_external
	.dwattr $C$DW$39, DW_AT_TI_begin_file("C:/TI/c2000/C2000Ware_4_00_00_00/device_support/f2837xd/common/source/F2837xD_DefaultISR.c")
	.dwattr $C$DW$39, DW_AT_TI_begin_line(0x32c)
	.dwattr $C$DW$39, DW_AT_TI_begin_column(0x10)
	.dwattr $C$DW$39, DW_AT_TI_interrupt
	.dwattr $C$DW$39, DW_AT_TI_max_frame_size(-6)
	.dwpsn	file "C:/TI/c2000/C2000Ware_4_00_00_00/device_support/f2837xd/common/source/F2837xD_DefaultISR.c",line 813,column 1,is_stmt,address _EPWM4_ISR,isa 0

	.dwfde $C$DW$CIE, _EPWM4_ISR
;----------------------------------------------------------------------
; 812 | interrupt void EPWM4_ISR(void)                                         
; 814 | //                                                                     
; 815 | // Insert ISR Code here                                                
; 816 | //                                                                     
; 818 | //                                                                     
; 819 | // To receive more interrupts from this PIE group,                     
; 820 | // acknowledge this interrupt.                                         
; 821 | // PieCtrlRegs.PIEACK.all = PIEACK_GROUP3;                             
; 822 | //                                                                     
; 824 | //                                                                     
; 825 | // Next two lines for debug only to halt the processor here            
; 826 | // Remove after inserting ISR Code                                     
; 827 | //                                                                     
;----------------------------------------------------------------------

;***************************************************************
;* FNAME: _EPWM4_ISR                    FR SIZE:   4           *
;*                                                             *
;* FUNCTION ENVIRONMENT                                        *
;*                                                             *
;* FUNCTION PROPERTIES                                         *
;*                            0 Parameter,  0 Auto,  4 SOE     *
;***************************************************************

_EPWM4_ISR:
	.dwcfi	cfa_offset, -2
	.dwcfi	save_reg_to_mem, 26, 0
        ASP       ; [CPU_ALU] 
        PUSH      RB                    ; [CPU_FPU] 
	.dwcfi	save_reg_to_mem, 74, 4
	.dwcfi	cfa_offset, -4
        MOV32     *SP++,STF             ; [CPU_FPU] 
	.dwcfi	save_reg_to_mem, 40, 6
	.dwcfi	cfa_offset, -6
        SETFLG    RNDF32=1, RNDF64=1    ; [CPU_FPU] 
        CLRC      PAGE0,OVM             ; [CPU_ALU] 
        CLRC      AMODE                 ; [CPU_ALU] 
	.dwpsn	file "C:/TI/c2000/C2000Ware_4_00_00_00/device_support/f2837xd/common/source/F2837xD_DefaultISR.c",line 828,column 5,is_stmt,isa 0
;----------------------------------------------------------------------
; 828 | asm ("      ESTOP0");                                                  
;----------------------------------------------------------------------
      ESTOP0
$C$L39:    
	.dwpsn	file "C:/TI/c2000/C2000Ware_4_00_00_00/device_support/f2837xd/common/source/F2837xD_DefaultISR.c",line 829,column 5,is_stmt,isa 0
;----------------------------------------------------------------------
; 829 | for(;;);                                                               
;----------------------------------------------------------------------
        B         $C$L39,UNC            ; [CPU_ALU] |829| 
        ; branch occurs ; [] |829| 
	.dwattr $C$DW$39, DW_AT_TI_end_file("C:/TI/c2000/C2000Ware_4_00_00_00/device_support/f2837xd/common/source/F2837xD_DefaultISR.c")
	.dwattr $C$DW$39, DW_AT_TI_end_line(0x33e)
	.dwattr $C$DW$39, DW_AT_TI_end_column(0x01)
	.dwendentry
	.dwendtag $C$DW$39

	.sect	".text:retain"
	.retain
	.retainrefs
	.global	_EPWM5_ISR

$C$DW$40	.dwtag  DW_TAG_subprogram
	.dwattr $C$DW$40, DW_AT_name("EPWM5_ISR")
	.dwattr $C$DW$40, DW_AT_low_pc(_EPWM5_ISR)
	.dwattr $C$DW$40, DW_AT_high_pc(0x00)
	.dwattr $C$DW$40, DW_AT_TI_symbol_name("_EPWM5_ISR")
	.dwattr $C$DW$40, DW_AT_external
	.dwattr $C$DW$40, DW_AT_TI_begin_file("C:/TI/c2000/C2000Ware_4_00_00_00/device_support/f2837xd/common/source/F2837xD_DefaultISR.c")
	.dwattr $C$DW$40, DW_AT_TI_begin_line(0x343)
	.dwattr $C$DW$40, DW_AT_TI_begin_column(0x10)
	.dwattr $C$DW$40, DW_AT_TI_interrupt
	.dwattr $C$DW$40, DW_AT_TI_max_frame_size(-6)
	.dwpsn	file "C:/TI/c2000/C2000Ware_4_00_00_00/device_support/f2837xd/common/source/F2837xD_DefaultISR.c",line 836,column 1,is_stmt,address _EPWM5_ISR,isa 0

	.dwfde $C$DW$CIE, _EPWM5_ISR
;----------------------------------------------------------------------
; 835 | interrupt void EPWM5_ISR(void)                                         
; 837 | //                                                                     
; 838 | // Insert ISR Code here                                                
; 839 | //                                                                     
; 841 | //                                                                     
; 842 | // To receive more interrupts from this PIE group,                     
; 843 | // acknowledge this interrupt.                                         
; 844 | // PieCtrlRegs.PIEACK.all = PIEACK_GROUP3;                             
; 845 | //                                                                     
; 847 | //                                                                     
; 848 | // Next two lines for debug only to halt the processor here            
; 849 | // Remove after inserting ISR Code                                     
; 850 | //                                                                     
;----------------------------------------------------------------------

;***************************************************************
;* FNAME: _EPWM5_ISR                    FR SIZE:   4           *
;*                                                             *
;* FUNCTION ENVIRONMENT                                        *
;*                                                             *
;* FUNCTION PROPERTIES                                         *
;*                            0 Parameter,  0 Auto,  4 SOE     *
;***************************************************************

_EPWM5_ISR:
	.dwcfi	cfa_offset, -2
	.dwcfi	save_reg_to_mem, 26, 0
        ASP       ; [CPU_ALU] 
        PUSH      RB                    ; [CPU_FPU] 
	.dwcfi	save_reg_to_mem, 74, 4
	.dwcfi	cfa_offset, -4
        MOV32     *SP++,STF             ; [CPU_FPU] 
	.dwcfi	save_reg_to_mem, 40, 6
	.dwcfi	cfa_offset, -6
        SETFLG    RNDF32=1, RNDF64=1    ; [CPU_FPU] 
        CLRC      PAGE0,OVM             ; [CPU_ALU] 
        CLRC      AMODE                 ; [CPU_ALU] 
	.dwpsn	file "C:/TI/c2000/C2000Ware_4_00_00_00/device_support/f2837xd/common/source/F2837xD_DefaultISR.c",line 851,column 5,is_stmt,isa 0
;----------------------------------------------------------------------
; 851 | asm ("      ESTOP0");                                                  
;----------------------------------------------------------------------
      ESTOP0
$C$L40:    
	.dwpsn	file "C:/TI/c2000/C2000Ware_4_00_00_00/device_support/f2837xd/common/source/F2837xD_DefaultISR.c",line 852,column 5,is_stmt,isa 0
;----------------------------------------------------------------------
; 852 | for(;;);                                                               
;----------------------------------------------------------------------
        B         $C$L40,UNC            ; [CPU_ALU] |852| 
        ; branch occurs ; [] |852| 
	.dwattr $C$DW$40, DW_AT_TI_end_file("C:/TI/c2000/C2000Ware_4_00_00_00/device_support/f2837xd/common/source/F2837xD_DefaultISR.c")
	.dwattr $C$DW$40, DW_AT_TI_end_line(0x355)
	.dwattr $C$DW$40, DW_AT_TI_end_column(0x01)
	.dwendentry
	.dwendtag $C$DW$40

	.sect	".text:retain"
	.retain
	.retainrefs
	.global	_EPWM6_ISR

$C$DW$41	.dwtag  DW_TAG_subprogram
	.dwattr $C$DW$41, DW_AT_name("EPWM6_ISR")
	.dwattr $C$DW$41, DW_AT_low_pc(_EPWM6_ISR)
	.dwattr $C$DW$41, DW_AT_high_pc(0x00)
	.dwattr $C$DW$41, DW_AT_TI_symbol_name("_EPWM6_ISR")
	.dwattr $C$DW$41, DW_AT_external
	.dwattr $C$DW$41, DW_AT_TI_begin_file("C:/TI/c2000/C2000Ware_4_00_00_00/device_support/f2837xd/common/source/F2837xD_DefaultISR.c")
	.dwattr $C$DW$41, DW_AT_TI_begin_line(0x35a)
	.dwattr $C$DW$41, DW_AT_TI_begin_column(0x10)
	.dwattr $C$DW$41, DW_AT_TI_interrupt
	.dwattr $C$DW$41, DW_AT_TI_max_frame_size(-6)
	.dwpsn	file "C:/TI/c2000/C2000Ware_4_00_00_00/device_support/f2837xd/common/source/F2837xD_DefaultISR.c",line 859,column 1,is_stmt,address _EPWM6_ISR,isa 0

	.dwfde $C$DW$CIE, _EPWM6_ISR
;----------------------------------------------------------------------
; 858 | interrupt void EPWM6_ISR(void)                                         
; 860 | //                                                                     
; 861 | // Insert ISR Code here                                                
; 862 | //                                                                     
; 864 | //                                                                     
; 865 | // To receive more interrupts from this PIE group,                     
; 866 | // acknowledge this interrupt.                                         
; 867 | // PieCtrlRegs.PIEACK.all = PIEACK_GROUP3;                             
; 868 | //                                                                     
; 870 | //                                                                     
; 871 | // Next two lines for debug only to halt the processor here            
; 872 | // Remove after inserting ISR Code                                     
; 873 | //                                                                     
;----------------------------------------------------------------------

;***************************************************************
;* FNAME: _EPWM6_ISR                    FR SIZE:   4           *
;*                                                             *
;* FUNCTION ENVIRONMENT                                        *
;*                                                             *
;* FUNCTION PROPERTIES                                         *
;*                            0 Parameter,  0 Auto,  4 SOE     *
;***************************************************************

_EPWM6_ISR:
	.dwcfi	cfa_offset, -2
	.dwcfi	save_reg_to_mem, 26, 0
        ASP       ; [CPU_ALU] 
        PUSH      RB                    ; [CPU_FPU] 
	.dwcfi	save_reg_to_mem, 74, 4
	.dwcfi	cfa_offset, -4
        MOV32     *SP++,STF             ; [CPU_FPU] 
	.dwcfi	save_reg_to_mem, 40, 6
	.dwcfi	cfa_offset, -6
        SETFLG    RNDF32=1, RNDF64=1    ; [CPU_FPU] 
        CLRC      PAGE0,OVM             ; [CPU_ALU] 
        CLRC      AMODE                 ; [CPU_ALU] 
	.dwpsn	file "C:/TI/c2000/C2000Ware_4_00_00_00/device_support/f2837xd/common/source/F2837xD_DefaultISR.c",line 874,column 5,is_stmt,isa 0
;----------------------------------------------------------------------
; 874 | asm ("      ESTOP0");                                                  
;----------------------------------------------------------------------
      ESTOP0
$C$L41:    
	.dwpsn	file "C:/TI/c2000/C2000Ware_4_00_00_00/device_support/f2837xd/common/source/F2837xD_DefaultISR.c",line 875,column 5,is_stmt,isa 0
;----------------------------------------------------------------------
; 875 | for(;;);                                                               
;----------------------------------------------------------------------
        B         $C$L41,UNC            ; [CPU_ALU] |875| 
        ; branch occurs ; [] |875| 
	.dwattr $C$DW$41, DW_AT_TI_end_file("C:/TI/c2000/C2000Ware_4_00_00_00/device_support/f2837xd/common/source/F2837xD_DefaultISR.c")
	.dwattr $C$DW$41, DW_AT_TI_end_line(0x36c)
	.dwattr $C$DW$41, DW_AT_TI_end_column(0x01)
	.dwendentry
	.dwendtag $C$DW$41

	.sect	".text:retain"
	.retain
	.retainrefs
	.global	_EPWM7_ISR

$C$DW$42	.dwtag  DW_TAG_subprogram
	.dwattr $C$DW$42, DW_AT_name("EPWM7_ISR")
	.dwattr $C$DW$42, DW_AT_low_pc(_EPWM7_ISR)
	.dwattr $C$DW$42, DW_AT_high_pc(0x00)
	.dwattr $C$DW$42, DW_AT_TI_symbol_name("_EPWM7_ISR")
	.dwattr $C$DW$42, DW_AT_external
	.dwattr $C$DW$42, DW_AT_TI_begin_file("C:/TI/c2000/C2000Ware_4_00_00_00/device_support/f2837xd/common/source/F2837xD_DefaultISR.c")
	.dwattr $C$DW$42, DW_AT_TI_begin_line(0x371)
	.dwattr $C$DW$42, DW_AT_TI_begin_column(0x10)
	.dwattr $C$DW$42, DW_AT_TI_interrupt
	.dwattr $C$DW$42, DW_AT_TI_max_frame_size(-6)
	.dwpsn	file "C:/TI/c2000/C2000Ware_4_00_00_00/device_support/f2837xd/common/source/F2837xD_DefaultISR.c",line 882,column 1,is_stmt,address _EPWM7_ISR,isa 0

	.dwfde $C$DW$CIE, _EPWM7_ISR
;----------------------------------------------------------------------
; 881 | interrupt void EPWM7_ISR(void)                                         
; 883 | //                                                                     
; 884 | // Insert ISR Code here                                                
; 885 | //                                                                     
; 887 | //                                                                     
; 888 | // To receive more interrupts from this PIE group,                     
; 889 | // acknowledge this interrupt.                                         
; 890 | // PieCtrlRegs.PIEACK.all = PIEACK_GROUP3;                             
; 891 | //                                                                     
; 893 | //                                                                     
; 894 | // Next two lines for debug only to halt the processor here            
; 895 | // Remove after inserting ISR Code                                     
; 896 | //                                                                     
;----------------------------------------------------------------------

;***************************************************************
;* FNAME: _EPWM7_ISR                    FR SIZE:   4           *
;*                                                             *
;* FUNCTION ENVIRONMENT                                        *
;*                                                             *
;* FUNCTION PROPERTIES                                         *
;*                            0 Parameter,  0 Auto,  4 SOE     *
;***************************************************************

_EPWM7_ISR:
	.dwcfi	cfa_offset, -2
	.dwcfi	save_reg_to_mem, 26, 0
        ASP       ; [CPU_ALU] 
        PUSH      RB                    ; [CPU_FPU] 
	.dwcfi	save_reg_to_mem, 74, 4
	.dwcfi	cfa_offset, -4
        MOV32     *SP++,STF             ; [CPU_FPU] 
	.dwcfi	save_reg_to_mem, 40, 6
	.dwcfi	cfa_offset, -6
        SETFLG    RNDF32=1, RNDF64=1    ; [CPU_FPU] 
        CLRC      PAGE0,OVM             ; [CPU_ALU] 
        CLRC      AMODE                 ; [CPU_ALU] 
	.dwpsn	file "C:/TI/c2000/C2000Ware_4_00_00_00/device_support/f2837xd/common/source/F2837xD_DefaultISR.c",line 897,column 5,is_stmt,isa 0
;----------------------------------------------------------------------
; 897 | asm ("      ESTOP0");                                                  
;----------------------------------------------------------------------
      ESTOP0
$C$L42:    
	.dwpsn	file "C:/TI/c2000/C2000Ware_4_00_00_00/device_support/f2837xd/common/source/F2837xD_DefaultISR.c",line 898,column 5,is_stmt,isa 0
;----------------------------------------------------------------------
; 898 | for(;;);                                                               
;----------------------------------------------------------------------
        B         $C$L42,UNC            ; [CPU_ALU] |898| 
        ; branch occurs ; [] |898| 
	.dwattr $C$DW$42, DW_AT_TI_end_file("C:/TI/c2000/C2000Ware_4_00_00_00/device_support/f2837xd/common/source/F2837xD_DefaultISR.c")
	.dwattr $C$DW$42, DW_AT_TI_end_line(0x383)
	.dwattr $C$DW$42, DW_AT_TI_end_column(0x01)
	.dwendentry
	.dwendtag $C$DW$42

	.sect	".text:retain"
	.retain
	.retainrefs
	.global	_EPWM8_ISR

$C$DW$43	.dwtag  DW_TAG_subprogram
	.dwattr $C$DW$43, DW_AT_name("EPWM8_ISR")
	.dwattr $C$DW$43, DW_AT_low_pc(_EPWM8_ISR)
	.dwattr $C$DW$43, DW_AT_high_pc(0x00)
	.dwattr $C$DW$43, DW_AT_TI_symbol_name("_EPWM8_ISR")
	.dwattr $C$DW$43, DW_AT_external
	.dwattr $C$DW$43, DW_AT_TI_begin_file("C:/TI/c2000/C2000Ware_4_00_00_00/device_support/f2837xd/common/source/F2837xD_DefaultISR.c")
	.dwattr $C$DW$43, DW_AT_TI_begin_line(0x388)
	.dwattr $C$DW$43, DW_AT_TI_begin_column(0x10)
	.dwattr $C$DW$43, DW_AT_TI_interrupt
	.dwattr $C$DW$43, DW_AT_TI_max_frame_size(-6)
	.dwpsn	file "C:/TI/c2000/C2000Ware_4_00_00_00/device_support/f2837xd/common/source/F2837xD_DefaultISR.c",line 905,column 1,is_stmt,address _EPWM8_ISR,isa 0

	.dwfde $C$DW$CIE, _EPWM8_ISR
;----------------------------------------------------------------------
; 904 | interrupt void EPWM8_ISR(void)                                         
; 906 | //                                                                     
; 907 | // Insert ISR Code here                                                
; 908 | //                                                                     
; 910 | //                                                                     
; 911 | // To receive more interrupts from this PIE group,                     
; 912 | // acknowledge this interrupt.                                         
; 913 | // PieCtrlRegs.PIEACK.all = PIEACK_GROUP3;                             
; 914 | //                                                                     
; 916 | //                                                                     
; 917 | // Next two lines for debug only to halt the processor here            
; 918 | // Remove after inserting ISR Code                                     
; 919 | //                                                                     
;----------------------------------------------------------------------

;***************************************************************
;* FNAME: _EPWM8_ISR                    FR SIZE:   4           *
;*                                                             *
;* FUNCTION ENVIRONMENT                                        *
;*                                                             *
;* FUNCTION PROPERTIES                                         *
;*                            0 Parameter,  0 Auto,  4 SOE     *
;***************************************************************

_EPWM8_ISR:
	.dwcfi	cfa_offset, -2
	.dwcfi	save_reg_to_mem, 26, 0
        ASP       ; [CPU_ALU] 
        PUSH      RB                    ; [CPU_FPU] 
	.dwcfi	save_reg_to_mem, 74, 4
	.dwcfi	cfa_offset, -4
        MOV32     *SP++,STF             ; [CPU_FPU] 
	.dwcfi	save_reg_to_mem, 40, 6
	.dwcfi	cfa_offset, -6
        SETFLG    RNDF32=1, RNDF64=1    ; [CPU_FPU] 
        CLRC      PAGE0,OVM             ; [CPU_ALU] 
        CLRC      AMODE                 ; [CPU_ALU] 
	.dwpsn	file "C:/TI/c2000/C2000Ware_4_00_00_00/device_support/f2837xd/common/source/F2837xD_DefaultISR.c",line 920,column 5,is_stmt,isa 0
;----------------------------------------------------------------------
; 920 | asm ("      ESTOP0");                                                  
;----------------------------------------------------------------------
      ESTOP0
$C$L43:    
	.dwpsn	file "C:/TI/c2000/C2000Ware_4_00_00_00/device_support/f2837xd/common/source/F2837xD_DefaultISR.c",line 921,column 5,is_stmt,isa 0
;----------------------------------------------------------------------
; 921 | for(;;);                                                               
;----------------------------------------------------------------------
        B         $C$L43,UNC            ; [CPU_ALU] |921| 
        ; branch occurs ; [] |921| 
	.dwattr $C$DW$43, DW_AT_TI_end_file("C:/TI/c2000/C2000Ware_4_00_00_00/device_support/f2837xd/common/source/F2837xD_DefaultISR.c")
	.dwattr $C$DW$43, DW_AT_TI_end_line(0x39a)
	.dwattr $C$DW$43, DW_AT_TI_end_column(0x01)
	.dwendentry
	.dwendtag $C$DW$43

	.sect	".text:retain"
	.retain
	.retainrefs
	.global	_ECAP1_ISR

$C$DW$44	.dwtag  DW_TAG_subprogram
	.dwattr $C$DW$44, DW_AT_name("ECAP1_ISR")
	.dwattr $C$DW$44, DW_AT_low_pc(_ECAP1_ISR)
	.dwattr $C$DW$44, DW_AT_high_pc(0x00)
	.dwattr $C$DW$44, DW_AT_TI_symbol_name("_ECAP1_ISR")
	.dwattr $C$DW$44, DW_AT_external
	.dwattr $C$DW$44, DW_AT_TI_begin_file("C:/TI/c2000/C2000Ware_4_00_00_00/device_support/f2837xd/common/source/F2837xD_DefaultISR.c")
	.dwattr $C$DW$44, DW_AT_TI_begin_line(0x39f)
	.dwattr $C$DW$44, DW_AT_TI_begin_column(0x10)
	.dwattr $C$DW$44, DW_AT_TI_interrupt
	.dwattr $C$DW$44, DW_AT_TI_max_frame_size(-6)
	.dwpsn	file "C:/TI/c2000/C2000Ware_4_00_00_00/device_support/f2837xd/common/source/F2837xD_DefaultISR.c",line 928,column 1,is_stmt,address _ECAP1_ISR,isa 0

	.dwfde $C$DW$CIE, _ECAP1_ISR
;----------------------------------------------------------------------
; 927 | interrupt void ECAP1_ISR(void)                                         
; 929 | //                                                                     
; 930 | // Insert ISR Code here                                                
; 931 | //                                                                     
; 933 | //                                                                     
; 934 | // To receive more interrupts from this PIE group,                     
; 935 | // acknowledge this interrupt.                                         
; 936 | // PieCtrlRegs.PIEACK.all = PIEACK_GROUP4;                             
; 937 | //                                                                     
; 939 | //                                                                     
; 940 | // Next two lines for debug only to halt the processor here            
; 941 | // Remove after inserting ISR Code                                     
; 942 | //                                                                     
;----------------------------------------------------------------------

;***************************************************************
;* FNAME: _ECAP1_ISR                    FR SIZE:   4           *
;*                                                             *
;* FUNCTION ENVIRONMENT                                        *
;*                                                             *
;* FUNCTION PROPERTIES                                         *
;*                            0 Parameter,  0 Auto,  4 SOE     *
;***************************************************************

_ECAP1_ISR:
	.dwcfi	cfa_offset, -2
	.dwcfi	save_reg_to_mem, 26, 0
        ASP       ; [CPU_ALU] 
        PUSH      RB                    ; [CPU_FPU] 
	.dwcfi	save_reg_to_mem, 74, 4
	.dwcfi	cfa_offset, -4
        MOV32     *SP++,STF             ; [CPU_FPU] 
	.dwcfi	save_reg_to_mem, 40, 6
	.dwcfi	cfa_offset, -6
        SETFLG    RNDF32=1, RNDF64=1    ; [CPU_FPU] 
        CLRC      PAGE0,OVM             ; [CPU_ALU] 
        CLRC      AMODE                 ; [CPU_ALU] 
	.dwpsn	file "C:/TI/c2000/C2000Ware_4_00_00_00/device_support/f2837xd/common/source/F2837xD_DefaultISR.c",line 943,column 5,is_stmt,isa 0
;----------------------------------------------------------------------
; 943 | asm ("      ESTOP0");                                                  
;----------------------------------------------------------------------
      ESTOP0
$C$L44:    
	.dwpsn	file "C:/TI/c2000/C2000Ware_4_00_00_00/device_support/f2837xd/common/source/F2837xD_DefaultISR.c",line 944,column 5,is_stmt,isa 0
;----------------------------------------------------------------------
; 944 | for(;;);                                                               
;----------------------------------------------------------------------
        B         $C$L44,UNC            ; [CPU_ALU] |944| 
        ; branch occurs ; [] |944| 
	.dwattr $C$DW$44, DW_AT_TI_end_file("C:/TI/c2000/C2000Ware_4_00_00_00/device_support/f2837xd/common/source/F2837xD_DefaultISR.c")
	.dwattr $C$DW$44, DW_AT_TI_end_line(0x3b1)
	.dwattr $C$DW$44, DW_AT_TI_end_column(0x01)
	.dwendentry
	.dwendtag $C$DW$44

	.sect	".text:retain"
	.retain
	.retainrefs
	.global	_ECAP2_ISR

$C$DW$45	.dwtag  DW_TAG_subprogram
	.dwattr $C$DW$45, DW_AT_name("ECAP2_ISR")
	.dwattr $C$DW$45, DW_AT_low_pc(_ECAP2_ISR)
	.dwattr $C$DW$45, DW_AT_high_pc(0x00)
	.dwattr $C$DW$45, DW_AT_TI_symbol_name("_ECAP2_ISR")
	.dwattr $C$DW$45, DW_AT_external
	.dwattr $C$DW$45, DW_AT_TI_begin_file("C:/TI/c2000/C2000Ware_4_00_00_00/device_support/f2837xd/common/source/F2837xD_DefaultISR.c")
	.dwattr $C$DW$45, DW_AT_TI_begin_line(0x3b6)
	.dwattr $C$DW$45, DW_AT_TI_begin_column(0x10)
	.dwattr $C$DW$45, DW_AT_TI_interrupt
	.dwattr $C$DW$45, DW_AT_TI_max_frame_size(-6)
	.dwpsn	file "C:/TI/c2000/C2000Ware_4_00_00_00/device_support/f2837xd/common/source/F2837xD_DefaultISR.c",line 951,column 1,is_stmt,address _ECAP2_ISR,isa 0

	.dwfde $C$DW$CIE, _ECAP2_ISR
;----------------------------------------------------------------------
; 950 | interrupt void ECAP2_ISR(void)                                         
; 952 | //                                                                     
; 953 | // Insert ISR Code here                                                
; 954 | //                                                                     
; 956 | //                                                                     
; 957 | // To receive more interrupts from this PIE group,                     
; 958 | // acknowledge this interrupt.                                         
; 959 | // PieCtrlRegs.PIEACK.all = PIEACK_GROUP4;                             
; 960 | //                                                                     
; 962 | //                                                                     
; 963 | // Next two lines for debug only to halt the processor here            
; 964 | // Remove after inserting ISR Code                                     
; 965 | //                                                                     
;----------------------------------------------------------------------

;***************************************************************
;* FNAME: _ECAP2_ISR                    FR SIZE:   4           *
;*                                                             *
;* FUNCTION ENVIRONMENT                                        *
;*                                                             *
;* FUNCTION PROPERTIES                                         *
;*                            0 Parameter,  0 Auto,  4 SOE     *
;***************************************************************

_ECAP2_ISR:
	.dwcfi	cfa_offset, -2
	.dwcfi	save_reg_to_mem, 26, 0
        ASP       ; [CPU_ALU] 
        PUSH      RB                    ; [CPU_FPU] 
	.dwcfi	save_reg_to_mem, 74, 4
	.dwcfi	cfa_offset, -4
        MOV32     *SP++,STF             ; [CPU_FPU] 
	.dwcfi	save_reg_to_mem, 40, 6
	.dwcfi	cfa_offset, -6
        SETFLG    RNDF32=1, RNDF64=1    ; [CPU_FPU] 
        CLRC      PAGE0,OVM             ; [CPU_ALU] 
        CLRC      AMODE                 ; [CPU_ALU] 
	.dwpsn	file "C:/TI/c2000/C2000Ware_4_00_00_00/device_support/f2837xd/common/source/F2837xD_DefaultISR.c",line 966,column 5,is_stmt,isa 0
;----------------------------------------------------------------------
; 966 | asm ("      ESTOP0");                                                  
;----------------------------------------------------------------------
      ESTOP0
$C$L45:    
	.dwpsn	file "C:/TI/c2000/C2000Ware_4_00_00_00/device_support/f2837xd/common/source/F2837xD_DefaultISR.c",line 967,column 5,is_stmt,isa 0
;----------------------------------------------------------------------
; 967 | for(;;);                                                               
;----------------------------------------------------------------------
        B         $C$L45,UNC            ; [CPU_ALU] |967| 
        ; branch occurs ; [] |967| 
	.dwattr $C$DW$45, DW_AT_TI_end_file("C:/TI/c2000/C2000Ware_4_00_00_00/device_support/f2837xd/common/source/F2837xD_DefaultISR.c")
	.dwattr $C$DW$45, DW_AT_TI_end_line(0x3c8)
	.dwattr $C$DW$45, DW_AT_TI_end_column(0x01)
	.dwendentry
	.dwendtag $C$DW$45

	.sect	".text:retain"
	.retain
	.retainrefs
	.global	_ECAP3_ISR

$C$DW$46	.dwtag  DW_TAG_subprogram
	.dwattr $C$DW$46, DW_AT_name("ECAP3_ISR")
	.dwattr $C$DW$46, DW_AT_low_pc(_ECAP3_ISR)
	.dwattr $C$DW$46, DW_AT_high_pc(0x00)
	.dwattr $C$DW$46, DW_AT_TI_symbol_name("_ECAP3_ISR")
	.dwattr $C$DW$46, DW_AT_external
	.dwattr $C$DW$46, DW_AT_TI_begin_file("C:/TI/c2000/C2000Ware_4_00_00_00/device_support/f2837xd/common/source/F2837xD_DefaultISR.c")
	.dwattr $C$DW$46, DW_AT_TI_begin_line(0x3cd)
	.dwattr $C$DW$46, DW_AT_TI_begin_column(0x10)
	.dwattr $C$DW$46, DW_AT_TI_interrupt
	.dwattr $C$DW$46, DW_AT_TI_max_frame_size(-6)
	.dwpsn	file "C:/TI/c2000/C2000Ware_4_00_00_00/device_support/f2837xd/common/source/F2837xD_DefaultISR.c",line 974,column 1,is_stmt,address _ECAP3_ISR,isa 0

	.dwfde $C$DW$CIE, _ECAP3_ISR
;----------------------------------------------------------------------
; 973 | interrupt void ECAP3_ISR(void)                                         
; 975 | //                                                                     
; 976 | // Insert ISR Code here                                                
; 977 | //                                                                     
; 979 | //                                                                     
; 980 | // To receive more interrupts from this PIE group,                     
; 981 | // acknowledge this interrupt.                                         
; 982 | // PieCtrlRegs.PIEACK.all = PIEACK_GROUP4;                             
; 983 | //                                                                     
; 985 | //                                                                     
; 986 | // Next two lines for debug only to halt the processor here            
; 987 | // Remove after inserting ISR Code                                     
; 988 | //                                                                     
;----------------------------------------------------------------------

;***************************************************************
;* FNAME: _ECAP3_ISR                    FR SIZE:   4           *
;*                                                             *
;* FUNCTION ENVIRONMENT                                        *
;*                                                             *
;* FUNCTION PROPERTIES                                         *
;*                            0 Parameter,  0 Auto,  4 SOE     *
;***************************************************************

_ECAP3_ISR:
	.dwcfi	cfa_offset, -2
	.dwcfi	save_reg_to_mem, 26, 0
        ASP       ; [CPU_ALU] 
        PUSH      RB                    ; [CPU_FPU] 
	.dwcfi	save_reg_to_mem, 74, 4
	.dwcfi	cfa_offset, -4
        MOV32     *SP++,STF             ; [CPU_FPU] 
	.dwcfi	save_reg_to_mem, 40, 6
	.dwcfi	cfa_offset, -6
        SETFLG    RNDF32=1, RNDF64=1    ; [CPU_FPU] 
        CLRC      PAGE0,OVM             ; [CPU_ALU] 
        CLRC      AMODE                 ; [CPU_ALU] 
	.dwpsn	file "C:/TI/c2000/C2000Ware_4_00_00_00/device_support/f2837xd/common/source/F2837xD_DefaultISR.c",line 989,column 5,is_stmt,isa 0
;----------------------------------------------------------------------
; 989 | asm ("      ESTOP0");                                                  
;----------------------------------------------------------------------
      ESTOP0
$C$L46:    
	.dwpsn	file "C:/TI/c2000/C2000Ware_4_00_00_00/device_support/f2837xd/common/source/F2837xD_DefaultISR.c",line 990,column 5,is_stmt,isa 0
;----------------------------------------------------------------------
; 990 | for(;;);                                                               
;----------------------------------------------------------------------
        B         $C$L46,UNC            ; [CPU_ALU] |990| 
        ; branch occurs ; [] |990| 
	.dwattr $C$DW$46, DW_AT_TI_end_file("C:/TI/c2000/C2000Ware_4_00_00_00/device_support/f2837xd/common/source/F2837xD_DefaultISR.c")
	.dwattr $C$DW$46, DW_AT_TI_end_line(0x3df)
	.dwattr $C$DW$46, DW_AT_TI_end_column(0x01)
	.dwendentry
	.dwendtag $C$DW$46

	.sect	".text:retain"
	.retain
	.retainrefs
	.global	_ECAP4_ISR

$C$DW$47	.dwtag  DW_TAG_subprogram
	.dwattr $C$DW$47, DW_AT_name("ECAP4_ISR")
	.dwattr $C$DW$47, DW_AT_low_pc(_ECAP4_ISR)
	.dwattr $C$DW$47, DW_AT_high_pc(0x00)
	.dwattr $C$DW$47, DW_AT_TI_symbol_name("_ECAP4_ISR")
	.dwattr $C$DW$47, DW_AT_external
	.dwattr $C$DW$47, DW_AT_TI_begin_file("C:/TI/c2000/C2000Ware_4_00_00_00/device_support/f2837xd/common/source/F2837xD_DefaultISR.c")
	.dwattr $C$DW$47, DW_AT_TI_begin_line(0x3e4)
	.dwattr $C$DW$47, DW_AT_TI_begin_column(0x10)
	.dwattr $C$DW$47, DW_AT_TI_interrupt
	.dwattr $C$DW$47, DW_AT_TI_max_frame_size(-6)
	.dwpsn	file "C:/TI/c2000/C2000Ware_4_00_00_00/device_support/f2837xd/common/source/F2837xD_DefaultISR.c",line 997,column 1,is_stmt,address _ECAP4_ISR,isa 0

	.dwfde $C$DW$CIE, _ECAP4_ISR
;----------------------------------------------------------------------
; 996 | interrupt void ECAP4_ISR(void)                                         
; 998 | //                                                                     
; 999 | // Insert ISR Code here                                                
; 1000 | //                                                                     
; 1002 | //                                                                     
; 1003 | // To receive more interrupts from this PIE group,                     
; 1004 | // acknowledge this interrupt.                                         
; 1005 | // PieCtrlRegs.PIEACK.all = PIEACK_GROUP4;                             
; 1006 | //                                                                     
; 1008 | //                                                                     
; 1009 | // Next two lines for debug only to halt the processor here            
; 1010 | // Remove after inserting ISR Code                                     
; 1011 | //                                                                     
;----------------------------------------------------------------------

;***************************************************************
;* FNAME: _ECAP4_ISR                    FR SIZE:   4           *
;*                                                             *
;* FUNCTION ENVIRONMENT                                        *
;*                                                             *
;* FUNCTION PROPERTIES                                         *
;*                            0 Parameter,  0 Auto,  4 SOE     *
;***************************************************************

_ECAP4_ISR:
	.dwcfi	cfa_offset, -2
	.dwcfi	save_reg_to_mem, 26, 0
        ASP       ; [CPU_ALU] 
        PUSH      RB                    ; [CPU_FPU] 
	.dwcfi	save_reg_to_mem, 74, 4
	.dwcfi	cfa_offset, -4
        MOV32     *SP++,STF             ; [CPU_FPU] 
	.dwcfi	save_reg_to_mem, 40, 6
	.dwcfi	cfa_offset, -6
        SETFLG    RNDF32=1, RNDF64=1    ; [CPU_FPU] 
        CLRC      PAGE0,OVM             ; [CPU_ALU] 
        CLRC      AMODE                 ; [CPU_ALU] 
	.dwpsn	file "C:/TI/c2000/C2000Ware_4_00_00_00/device_support/f2837xd/common/source/F2837xD_DefaultISR.c",line 1012,column 5,is_stmt,isa 0
;----------------------------------------------------------------------
; 1012 | asm ("      ESTOP0");                                                  
;----------------------------------------------------------------------
      ESTOP0
$C$L47:    
	.dwpsn	file "C:/TI/c2000/C2000Ware_4_00_00_00/device_support/f2837xd/common/source/F2837xD_DefaultISR.c",line 1013,column 5,is_stmt,isa 0
;----------------------------------------------------------------------
; 1013 | for(;;);                                                               
;----------------------------------------------------------------------
        B         $C$L47,UNC            ; [CPU_ALU] |1013| 
        ; branch occurs ; [] |1013| 
	.dwattr $C$DW$47, DW_AT_TI_end_file("C:/TI/c2000/C2000Ware_4_00_00_00/device_support/f2837xd/common/source/F2837xD_DefaultISR.c")
	.dwattr $C$DW$47, DW_AT_TI_end_line(0x3f6)
	.dwattr $C$DW$47, DW_AT_TI_end_column(0x01)
	.dwendentry
	.dwendtag $C$DW$47

	.sect	".text:retain"
	.retain
	.retainrefs
	.global	_ECAP5_ISR

$C$DW$48	.dwtag  DW_TAG_subprogram
	.dwattr $C$DW$48, DW_AT_name("ECAP5_ISR")
	.dwattr $C$DW$48, DW_AT_low_pc(_ECAP5_ISR)
	.dwattr $C$DW$48, DW_AT_high_pc(0x00)
	.dwattr $C$DW$48, DW_AT_TI_symbol_name("_ECAP5_ISR")
	.dwattr $C$DW$48, DW_AT_external
	.dwattr $C$DW$48, DW_AT_TI_begin_file("C:/TI/c2000/C2000Ware_4_00_00_00/device_support/f2837xd/common/source/F2837xD_DefaultISR.c")
	.dwattr $C$DW$48, DW_AT_TI_begin_line(0x3fb)
	.dwattr $C$DW$48, DW_AT_TI_begin_column(0x10)
	.dwattr $C$DW$48, DW_AT_TI_interrupt
	.dwattr $C$DW$48, DW_AT_TI_max_frame_size(-6)
	.dwpsn	file "C:/TI/c2000/C2000Ware_4_00_00_00/device_support/f2837xd/common/source/F2837xD_DefaultISR.c",line 1020,column 1,is_stmt,address _ECAP5_ISR,isa 0

	.dwfde $C$DW$CIE, _ECAP5_ISR
;----------------------------------------------------------------------
; 1019 | interrupt void ECAP5_ISR(void)                                         
; 1021 | //                                                                     
; 1022 | // Insert ISR Code here                                                
; 1023 | //                                                                     
; 1025 | //                                                                     
; 1026 | // To receive more interrupts from this PIE group,                     
; 1027 | // acknowledge this interrupt.                                         
; 1028 | // PieCtrlRegs.PIEACK.all = PIEACK_GROUP4;                             
; 1029 | //                                                                     
; 1031 | //                                                                     
; 1032 | // Next two lines for debug only to halt the processor here            
; 1033 | // Remove after inserting ISR Code                                     
; 1034 | //                                                                     
;----------------------------------------------------------------------

;***************************************************************
;* FNAME: _ECAP5_ISR                    FR SIZE:   4           *
;*                                                             *
;* FUNCTION ENVIRONMENT                                        *
;*                                                             *
;* FUNCTION PROPERTIES                                         *
;*                            0 Parameter,  0 Auto,  4 SOE     *
;***************************************************************

_ECAP5_ISR:
	.dwcfi	cfa_offset, -2
	.dwcfi	save_reg_to_mem, 26, 0
        ASP       ; [CPU_ALU] 
        PUSH      RB                    ; [CPU_FPU] 
	.dwcfi	save_reg_to_mem, 74, 4
	.dwcfi	cfa_offset, -4
        MOV32     *SP++,STF             ; [CPU_FPU] 
	.dwcfi	save_reg_to_mem, 40, 6
	.dwcfi	cfa_offset, -6
        SETFLG    RNDF32=1, RNDF64=1    ; [CPU_FPU] 
        CLRC      PAGE0,OVM             ; [CPU_ALU] 
        CLRC      AMODE                 ; [CPU_ALU] 
	.dwpsn	file "C:/TI/c2000/C2000Ware_4_00_00_00/device_support/f2837xd/common/source/F2837xD_DefaultISR.c",line 1035,column 5,is_stmt,isa 0
;----------------------------------------------------------------------
; 1035 | asm ("      ESTOP0");                                                  
;----------------------------------------------------------------------
      ESTOP0
$C$L48:    
	.dwpsn	file "C:/TI/c2000/C2000Ware_4_00_00_00/device_support/f2837xd/common/source/F2837xD_DefaultISR.c",line 1036,column 5,is_stmt,isa 0
;----------------------------------------------------------------------
; 1036 | for(;;);                                                               
;----------------------------------------------------------------------
        B         $C$L48,UNC            ; [CPU_ALU] |1036| 
        ; branch occurs ; [] |1036| 
	.dwattr $C$DW$48, DW_AT_TI_end_file("C:/TI/c2000/C2000Ware_4_00_00_00/device_support/f2837xd/common/source/F2837xD_DefaultISR.c")
	.dwattr $C$DW$48, DW_AT_TI_end_line(0x40d)
	.dwattr $C$DW$48, DW_AT_TI_end_column(0x01)
	.dwendentry
	.dwendtag $C$DW$48

	.sect	".text:retain"
	.retain
	.retainrefs
	.global	_ECAP6_ISR

$C$DW$49	.dwtag  DW_TAG_subprogram
	.dwattr $C$DW$49, DW_AT_name("ECAP6_ISR")
	.dwattr $C$DW$49, DW_AT_low_pc(_ECAP6_ISR)
	.dwattr $C$DW$49, DW_AT_high_pc(0x00)
	.dwattr $C$DW$49, DW_AT_TI_symbol_name("_ECAP6_ISR")
	.dwattr $C$DW$49, DW_AT_external
	.dwattr $C$DW$49, DW_AT_TI_begin_file("C:/TI/c2000/C2000Ware_4_00_00_00/device_support/f2837xd/common/source/F2837xD_DefaultISR.c")
	.dwattr $C$DW$49, DW_AT_TI_begin_line(0x412)
	.dwattr $C$DW$49, DW_AT_TI_begin_column(0x10)
	.dwattr $C$DW$49, DW_AT_TI_interrupt
	.dwattr $C$DW$49, DW_AT_TI_max_frame_size(-6)
	.dwpsn	file "C:/TI/c2000/C2000Ware_4_00_00_00/device_support/f2837xd/common/source/F2837xD_DefaultISR.c",line 1043,column 1,is_stmt,address _ECAP6_ISR,isa 0

	.dwfde $C$DW$CIE, _ECAP6_ISR
;----------------------------------------------------------------------
; 1042 | interrupt void ECAP6_ISR(void)                                         
; 1044 | //                                                                     
; 1045 | // Insert ISR Code here                                                
; 1046 | //                                                                     
; 1048 | //                                                                     
; 1049 | // To receive more interrupts from this PIE group,                     
; 1050 | // acknowledge this interrupt.                                         
; 1051 | // PieCtrlRegs.PIEACK.all = PIEACK_GROUP4;                             
; 1052 | //                                                                     
; 1054 | //                                                                     
; 1055 | // Next two lines for debug only to halt the processor here            
; 1056 | // Remove after inserting ISR Code                                     
; 1057 | //                                                                     
;----------------------------------------------------------------------

;***************************************************************
;* FNAME: _ECAP6_ISR                    FR SIZE:   4           *
;*                                                             *
;* FUNCTION ENVIRONMENT                                        *
;*                                                             *
;* FUNCTION PROPERTIES                                         *
;*                            0 Parameter,  0 Auto,  4 SOE     *
;***************************************************************

_ECAP6_ISR:
	.dwcfi	cfa_offset, -2
	.dwcfi	save_reg_to_mem, 26, 0
        ASP       ; [CPU_ALU] 
        PUSH      RB                    ; [CPU_FPU] 
	.dwcfi	save_reg_to_mem, 74, 4
	.dwcfi	cfa_offset, -4
        MOV32     *SP++,STF             ; [CPU_FPU] 
	.dwcfi	save_reg_to_mem, 40, 6
	.dwcfi	cfa_offset, -6
        SETFLG    RNDF32=1, RNDF64=1    ; [CPU_FPU] 
        CLRC      PAGE0,OVM             ; [CPU_ALU] 
        CLRC      AMODE                 ; [CPU_ALU] 
	.dwpsn	file "C:/TI/c2000/C2000Ware_4_00_00_00/device_support/f2837xd/common/source/F2837xD_DefaultISR.c",line 1058,column 5,is_stmt,isa 0
;----------------------------------------------------------------------
; 1058 | asm ("      ESTOP0");                                                  
;----------------------------------------------------------------------
      ESTOP0
$C$L49:    
	.dwpsn	file "C:/TI/c2000/C2000Ware_4_00_00_00/device_support/f2837xd/common/source/F2837xD_DefaultISR.c",line 1059,column 5,is_stmt,isa 0
;----------------------------------------------------------------------
; 1059 | for(;;);                                                               
;----------------------------------------------------------------------
        B         $C$L49,UNC            ; [CPU_ALU] |1059| 
        ; branch occurs ; [] |1059| 
	.dwattr $C$DW$49, DW_AT_TI_end_file("C:/TI/c2000/C2000Ware_4_00_00_00/device_support/f2837xd/common/source/F2837xD_DefaultISR.c")
	.dwattr $C$DW$49, DW_AT_TI_end_line(0x424)
	.dwattr $C$DW$49, DW_AT_TI_end_column(0x01)
	.dwendentry
	.dwendtag $C$DW$49

	.sect	".text:retain"
	.retain
	.retainrefs
	.global	_EQEP1_ISR

$C$DW$50	.dwtag  DW_TAG_subprogram
	.dwattr $C$DW$50, DW_AT_name("EQEP1_ISR")
	.dwattr $C$DW$50, DW_AT_low_pc(_EQEP1_ISR)
	.dwattr $C$DW$50, DW_AT_high_pc(0x00)
	.dwattr $C$DW$50, DW_AT_TI_symbol_name("_EQEP1_ISR")
	.dwattr $C$DW$50, DW_AT_external
	.dwattr $C$DW$50, DW_AT_TI_begin_file("C:/TI/c2000/C2000Ware_4_00_00_00/device_support/f2837xd/common/source/F2837xD_DefaultISR.c")
	.dwattr $C$DW$50, DW_AT_TI_begin_line(0x429)
	.dwattr $C$DW$50, DW_AT_TI_begin_column(0x10)
	.dwattr $C$DW$50, DW_AT_TI_interrupt
	.dwattr $C$DW$50, DW_AT_TI_max_frame_size(-6)
	.dwpsn	file "C:/TI/c2000/C2000Ware_4_00_00_00/device_support/f2837xd/common/source/F2837xD_DefaultISR.c",line 1066,column 1,is_stmt,address _EQEP1_ISR,isa 0

	.dwfde $C$DW$CIE, _EQEP1_ISR
;----------------------------------------------------------------------
; 1065 | interrupt void EQEP1_ISR(void)                                         
; 1067 | //                                                                     
; 1068 | // Insert ISR Code here                                                
; 1069 | //                                                                     
; 1071 | //                                                                     
; 1072 | // To receive more interrupts from this PIE group,                     
; 1073 | // acknowledge this interrupt.                                         
; 1074 | // PieCtrlRegs.PIEACK.all = PIEACK_GROUP5;                             
; 1075 | //                                                                     
; 1077 | //                                                                     
; 1078 | // Next two lines for debug only to halt the processor here            
; 1079 | // Remove after inserting ISR Code                                     
; 1080 | //                                                                     
;----------------------------------------------------------------------

;***************************************************************
;* FNAME: _EQEP1_ISR                    FR SIZE:   4           *
;*                                                             *
;* FUNCTION ENVIRONMENT                                        *
;*                                                             *
;* FUNCTION PROPERTIES                                         *
;*                            0 Parameter,  0 Auto,  4 SOE     *
;***************************************************************

_EQEP1_ISR:
	.dwcfi	cfa_offset, -2
	.dwcfi	save_reg_to_mem, 26, 0
        ASP       ; [CPU_ALU] 
        PUSH      RB                    ; [CPU_FPU] 
	.dwcfi	save_reg_to_mem, 74, 4
	.dwcfi	cfa_offset, -4
        MOV32     *SP++,STF             ; [CPU_FPU] 
	.dwcfi	save_reg_to_mem, 40, 6
	.dwcfi	cfa_offset, -6
        SETFLG    RNDF32=1, RNDF64=1    ; [CPU_FPU] 
        CLRC      PAGE0,OVM             ; [CPU_ALU] 
        CLRC      AMODE                 ; [CPU_ALU] 
	.dwpsn	file "C:/TI/c2000/C2000Ware_4_00_00_00/device_support/f2837xd/common/source/F2837xD_DefaultISR.c",line 1081,column 5,is_stmt,isa 0
;----------------------------------------------------------------------
; 1081 | asm ("      ESTOP0");                                                  
;----------------------------------------------------------------------
      ESTOP0
$C$L50:    
	.dwpsn	file "C:/TI/c2000/C2000Ware_4_00_00_00/device_support/f2837xd/common/source/F2837xD_DefaultISR.c",line 1082,column 5,is_stmt,isa 0
;----------------------------------------------------------------------
; 1082 | for(;;);                                                               
;----------------------------------------------------------------------
        B         $C$L50,UNC            ; [CPU_ALU] |1082| 
        ; branch occurs ; [] |1082| 
	.dwattr $C$DW$50, DW_AT_TI_end_file("C:/TI/c2000/C2000Ware_4_00_00_00/device_support/f2837xd/common/source/F2837xD_DefaultISR.c")
	.dwattr $C$DW$50, DW_AT_TI_end_line(0x43b)
	.dwattr $C$DW$50, DW_AT_TI_end_column(0x01)
	.dwendentry
	.dwendtag $C$DW$50

	.sect	".text:retain"
	.retain
	.retainrefs
	.global	_EQEP2_ISR

$C$DW$51	.dwtag  DW_TAG_subprogram
	.dwattr $C$DW$51, DW_AT_name("EQEP2_ISR")
	.dwattr $C$DW$51, DW_AT_low_pc(_EQEP2_ISR)
	.dwattr $C$DW$51, DW_AT_high_pc(0x00)
	.dwattr $C$DW$51, DW_AT_TI_symbol_name("_EQEP2_ISR")
	.dwattr $C$DW$51, DW_AT_external
	.dwattr $C$DW$51, DW_AT_TI_begin_file("C:/TI/c2000/C2000Ware_4_00_00_00/device_support/f2837xd/common/source/F2837xD_DefaultISR.c")
	.dwattr $C$DW$51, DW_AT_TI_begin_line(0x440)
	.dwattr $C$DW$51, DW_AT_TI_begin_column(0x10)
	.dwattr $C$DW$51, DW_AT_TI_interrupt
	.dwattr $C$DW$51, DW_AT_TI_max_frame_size(-6)
	.dwpsn	file "C:/TI/c2000/C2000Ware_4_00_00_00/device_support/f2837xd/common/source/F2837xD_DefaultISR.c",line 1089,column 1,is_stmt,address _EQEP2_ISR,isa 0

	.dwfde $C$DW$CIE, _EQEP2_ISR
;----------------------------------------------------------------------
; 1088 | interrupt void EQEP2_ISR(void)                                         
; 1090 | //                                                                     
; 1091 | // Insert ISR Code here                                                
; 1092 | //                                                                     
; 1094 | //                                                                     
; 1095 | // To receive more interrupts from this PIE group,                     
; 1096 | // acknowledge this interrupt.                                         
; 1097 | // PieCtrlRegs.PIEACK.all = PIEACK_GROUP5;                             
; 1098 | //                                                                     
; 1100 | //                                                                     
; 1101 | // Next two lines for debug only to halt the processor here            
; 1102 | // Remove after inserting ISR Code                                     
; 1103 | //                                                                     
;----------------------------------------------------------------------

;***************************************************************
;* FNAME: _EQEP2_ISR                    FR SIZE:   4           *
;*                                                             *
;* FUNCTION ENVIRONMENT                                        *
;*                                                             *
;* FUNCTION PROPERTIES                                         *
;*                            0 Parameter,  0 Auto,  4 SOE     *
;***************************************************************

_EQEP2_ISR:
	.dwcfi	cfa_offset, -2
	.dwcfi	save_reg_to_mem, 26, 0
        ASP       ; [CPU_ALU] 
        PUSH      RB                    ; [CPU_FPU] 
	.dwcfi	save_reg_to_mem, 74, 4
	.dwcfi	cfa_offset, -4
        MOV32     *SP++,STF             ; [CPU_FPU] 
	.dwcfi	save_reg_to_mem, 40, 6
	.dwcfi	cfa_offset, -6
        SETFLG    RNDF32=1, RNDF64=1    ; [CPU_FPU] 
        CLRC      PAGE0,OVM             ; [CPU_ALU] 
        CLRC      AMODE                 ; [CPU_ALU] 
	.dwpsn	file "C:/TI/c2000/C2000Ware_4_00_00_00/device_support/f2837xd/common/source/F2837xD_DefaultISR.c",line 1104,column 5,is_stmt,isa 0
;----------------------------------------------------------------------
; 1104 | asm ("      ESTOP0");                                                  
;----------------------------------------------------------------------
      ESTOP0
$C$L51:    
	.dwpsn	file "C:/TI/c2000/C2000Ware_4_00_00_00/device_support/f2837xd/common/source/F2837xD_DefaultISR.c",line 1105,column 5,is_stmt,isa 0
;----------------------------------------------------------------------
; 1105 | for(;;);                                                               
;----------------------------------------------------------------------
        B         $C$L51,UNC            ; [CPU_ALU] |1105| 
        ; branch occurs ; [] |1105| 
	.dwattr $C$DW$51, DW_AT_TI_end_file("C:/TI/c2000/C2000Ware_4_00_00_00/device_support/f2837xd/common/source/F2837xD_DefaultISR.c")
	.dwattr $C$DW$51, DW_AT_TI_end_line(0x452)
	.dwattr $C$DW$51, DW_AT_TI_end_column(0x01)
	.dwendentry
	.dwendtag $C$DW$51

	.sect	".text:retain"
	.retain
	.retainrefs
	.global	_EQEP3_ISR

$C$DW$52	.dwtag  DW_TAG_subprogram
	.dwattr $C$DW$52, DW_AT_name("EQEP3_ISR")
	.dwattr $C$DW$52, DW_AT_low_pc(_EQEP3_ISR)
	.dwattr $C$DW$52, DW_AT_high_pc(0x00)
	.dwattr $C$DW$52, DW_AT_TI_symbol_name("_EQEP3_ISR")
	.dwattr $C$DW$52, DW_AT_external
	.dwattr $C$DW$52, DW_AT_TI_begin_file("C:/TI/c2000/C2000Ware_4_00_00_00/device_support/f2837xd/common/source/F2837xD_DefaultISR.c")
	.dwattr $C$DW$52, DW_AT_TI_begin_line(0x457)
	.dwattr $C$DW$52, DW_AT_TI_begin_column(0x10)
	.dwattr $C$DW$52, DW_AT_TI_interrupt
	.dwattr $C$DW$52, DW_AT_TI_max_frame_size(-6)
	.dwpsn	file "C:/TI/c2000/C2000Ware_4_00_00_00/device_support/f2837xd/common/source/F2837xD_DefaultISR.c",line 1112,column 1,is_stmt,address _EQEP3_ISR,isa 0

	.dwfde $C$DW$CIE, _EQEP3_ISR
;----------------------------------------------------------------------
; 1111 | interrupt void EQEP3_ISR(void)                                         
; 1113 | //                                                                     
; 1114 | // Insert ISR Code here                                                
; 1115 | //                                                                     
; 1117 | //                                                                     
; 1118 | // To receive more interrupts from this PIE group,                     
; 1119 | // acknowledge this interrupt.                                         
; 1120 | // PieCtrlRegs.PIEACK.all = PIEACK_GROUP5;                             
; 1121 | //                                                                     
; 1123 | //                                                                     
; 1124 | // Next two lines for debug only to halt the processor here            
; 1125 | // Remove after inserting ISR Code                                     
; 1126 | //                                                                     
;----------------------------------------------------------------------

;***************************************************************
;* FNAME: _EQEP3_ISR                    FR SIZE:   4           *
;*                                                             *
;* FUNCTION ENVIRONMENT                                        *
;*                                                             *
;* FUNCTION PROPERTIES                                         *
;*                            0 Parameter,  0 Auto,  4 SOE     *
;***************************************************************

_EQEP3_ISR:
	.dwcfi	cfa_offset, -2
	.dwcfi	save_reg_to_mem, 26, 0
        ASP       ; [CPU_ALU] 
        PUSH      RB                    ; [CPU_FPU] 
	.dwcfi	save_reg_to_mem, 74, 4
	.dwcfi	cfa_offset, -4
        MOV32     *SP++,STF             ; [CPU_FPU] 
	.dwcfi	save_reg_to_mem, 40, 6
	.dwcfi	cfa_offset, -6
        SETFLG    RNDF32=1, RNDF64=1    ; [CPU_FPU] 
        CLRC      PAGE0,OVM             ; [CPU_ALU] 
        CLRC      AMODE                 ; [CPU_ALU] 
	.dwpsn	file "C:/TI/c2000/C2000Ware_4_00_00_00/device_support/f2837xd/common/source/F2837xD_DefaultISR.c",line 1127,column 5,is_stmt,isa 0
;----------------------------------------------------------------------
; 1127 | asm ("      ESTOP0");                                                  
;----------------------------------------------------------------------
      ESTOP0
$C$L52:    
	.dwpsn	file "C:/TI/c2000/C2000Ware_4_00_00_00/device_support/f2837xd/common/source/F2837xD_DefaultISR.c",line 1128,column 5,is_stmt,isa 0
;----------------------------------------------------------------------
; 1128 | for(;;);                                                               
;----------------------------------------------------------------------
        B         $C$L52,UNC            ; [CPU_ALU] |1128| 
        ; branch occurs ; [] |1128| 
	.dwattr $C$DW$52, DW_AT_TI_end_file("C:/TI/c2000/C2000Ware_4_00_00_00/device_support/f2837xd/common/source/F2837xD_DefaultISR.c")
	.dwattr $C$DW$52, DW_AT_TI_end_line(0x469)
	.dwattr $C$DW$52, DW_AT_TI_end_column(0x01)
	.dwendentry
	.dwendtag $C$DW$52

	.sect	".text:retain"
	.retain
	.retainrefs
	.global	_SPIA_RX_ISR

$C$DW$53	.dwtag  DW_TAG_subprogram
	.dwattr $C$DW$53, DW_AT_name("SPIA_RX_ISR")
	.dwattr $C$DW$53, DW_AT_low_pc(_SPIA_RX_ISR)
	.dwattr $C$DW$53, DW_AT_high_pc(0x00)
	.dwattr $C$DW$53, DW_AT_TI_symbol_name("_SPIA_RX_ISR")
	.dwattr $C$DW$53, DW_AT_external
	.dwattr $C$DW$53, DW_AT_TI_begin_file("C:/TI/c2000/C2000Ware_4_00_00_00/device_support/f2837xd/common/source/F2837xD_DefaultISR.c")
	.dwattr $C$DW$53, DW_AT_TI_begin_line(0x46e)
	.dwattr $C$DW$53, DW_AT_TI_begin_column(0x10)
	.dwattr $C$DW$53, DW_AT_TI_interrupt
	.dwattr $C$DW$53, DW_AT_TI_max_frame_size(-6)
	.dwpsn	file "C:/TI/c2000/C2000Ware_4_00_00_00/device_support/f2837xd/common/source/F2837xD_DefaultISR.c",line 1135,column 1,is_stmt,address _SPIA_RX_ISR,isa 0

	.dwfde $C$DW$CIE, _SPIA_RX_ISR
;----------------------------------------------------------------------
; 1134 | interrupt void SPIA_RX_ISR(void)                                       
; 1136 | //                                                                     
; 1137 | // Insert ISR Code here                                                
; 1138 | //                                                                     
; 1140 | //                                                                     
; 1141 | // To receive more interrupts from this PIE group,                     
; 1142 | // acknowledge this interrupt.                                         
; 1143 | // PieCtrlRegs.PIEACK.all = PIEACK_GROUP6;                             
; 1144 | //                                                                     
; 1146 | //                                                                     
; 1147 | // Next two lines for debug only to halt the processor here            
; 1148 | // Remove after inserting ISR Code                                     
; 1149 | //                                                                     
;----------------------------------------------------------------------

;***************************************************************
;* FNAME: _SPIA_RX_ISR                  FR SIZE:   4           *
;*                                                             *
;* FUNCTION ENVIRONMENT                                        *
;*                                                             *
;* FUNCTION PROPERTIES                                         *
;*                            0 Parameter,  0 Auto,  4 SOE     *
;***************************************************************

_SPIA_RX_ISR:
	.dwcfi	cfa_offset, -2
	.dwcfi	save_reg_to_mem, 26, 0
        ASP       ; [CPU_ALU] 
        PUSH      RB                    ; [CPU_FPU] 
	.dwcfi	save_reg_to_mem, 74, 4
	.dwcfi	cfa_offset, -4
        MOV32     *SP++,STF             ; [CPU_FPU] 
	.dwcfi	save_reg_to_mem, 40, 6
	.dwcfi	cfa_offset, -6
        SETFLG    RNDF32=1, RNDF64=1    ; [CPU_FPU] 
        CLRC      PAGE0,OVM             ; [CPU_ALU] 
        CLRC      AMODE                 ; [CPU_ALU] 
	.dwpsn	file "C:/TI/c2000/C2000Ware_4_00_00_00/device_support/f2837xd/common/source/F2837xD_DefaultISR.c",line 1150,column 5,is_stmt,isa 0
;----------------------------------------------------------------------
; 1150 | asm ("      ESTOP0");                                                  
;----------------------------------------------------------------------
      ESTOP0
$C$L53:    
	.dwpsn	file "C:/TI/c2000/C2000Ware_4_00_00_00/device_support/f2837xd/common/source/F2837xD_DefaultISR.c",line 1151,column 5,is_stmt,isa 0
;----------------------------------------------------------------------
; 1151 | for(;;);                                                               
;----------------------------------------------------------------------
        B         $C$L53,UNC            ; [CPU_ALU] |1151| 
        ; branch occurs ; [] |1151| 
	.dwattr $C$DW$53, DW_AT_TI_end_file("C:/TI/c2000/C2000Ware_4_00_00_00/device_support/f2837xd/common/source/F2837xD_DefaultISR.c")
	.dwattr $C$DW$53, DW_AT_TI_end_line(0x480)
	.dwattr $C$DW$53, DW_AT_TI_end_column(0x01)
	.dwendentry
	.dwendtag $C$DW$53

	.sect	".text:retain"
	.retain
	.retainrefs
	.global	_SPIA_TX_ISR

$C$DW$54	.dwtag  DW_TAG_subprogram
	.dwattr $C$DW$54, DW_AT_name("SPIA_TX_ISR")
	.dwattr $C$DW$54, DW_AT_low_pc(_SPIA_TX_ISR)
	.dwattr $C$DW$54, DW_AT_high_pc(0x00)
	.dwattr $C$DW$54, DW_AT_TI_symbol_name("_SPIA_TX_ISR")
	.dwattr $C$DW$54, DW_AT_external
	.dwattr $C$DW$54, DW_AT_TI_begin_file("C:/TI/c2000/C2000Ware_4_00_00_00/device_support/f2837xd/common/source/F2837xD_DefaultISR.c")
	.dwattr $C$DW$54, DW_AT_TI_begin_line(0x485)
	.dwattr $C$DW$54, DW_AT_TI_begin_column(0x10)
	.dwattr $C$DW$54, DW_AT_TI_interrupt
	.dwattr $C$DW$54, DW_AT_TI_max_frame_size(-6)
	.dwpsn	file "C:/TI/c2000/C2000Ware_4_00_00_00/device_support/f2837xd/common/source/F2837xD_DefaultISR.c",line 1158,column 1,is_stmt,address _SPIA_TX_ISR,isa 0

	.dwfde $C$DW$CIE, _SPIA_TX_ISR
;----------------------------------------------------------------------
; 1157 | interrupt void SPIA_TX_ISR(void)                                       
; 1159 | //                                                                     
; 1160 | // Insert ISR Code here                                                
; 1161 | //                                                                     
; 1163 | //                                                                     
; 1164 | // To receive more interrupts from this PIE group,                     
; 1165 | // acknowledge this interrupt.                                         
; 1166 | // PieCtrlRegs.PIEACK.all = PIEACK_GROUP6;                             
; 1167 | //                                                                     
; 1169 | //                                                                     
; 1170 | // Next two lines for debug only to halt the processor here            
; 1171 | // Remove after inserting ISR Code                                     
; 1172 | //                                                                     
;----------------------------------------------------------------------

;***************************************************************
;* FNAME: _SPIA_TX_ISR                  FR SIZE:   4           *
;*                                                             *
;* FUNCTION ENVIRONMENT                                        *
;*                                                             *
;* FUNCTION PROPERTIES                                         *
;*                            0 Parameter,  0 Auto,  4 SOE     *
;***************************************************************

_SPIA_TX_ISR:
	.dwcfi	cfa_offset, -2
	.dwcfi	save_reg_to_mem, 26, 0
        ASP       ; [CPU_ALU] 
        PUSH      RB                    ; [CPU_FPU] 
	.dwcfi	save_reg_to_mem, 74, 4
	.dwcfi	cfa_offset, -4
        MOV32     *SP++,STF             ; [CPU_FPU] 
	.dwcfi	save_reg_to_mem, 40, 6
	.dwcfi	cfa_offset, -6
        SETFLG    RNDF32=1, RNDF64=1    ; [CPU_FPU] 
        CLRC      PAGE0,OVM             ; [CPU_ALU] 
        CLRC      AMODE                 ; [CPU_ALU] 
	.dwpsn	file "C:/TI/c2000/C2000Ware_4_00_00_00/device_support/f2837xd/common/source/F2837xD_DefaultISR.c",line 1173,column 5,is_stmt,isa 0
;----------------------------------------------------------------------
; 1173 | asm ("      ESTOP0");                                                  
;----------------------------------------------------------------------
      ESTOP0
$C$L54:    
	.dwpsn	file "C:/TI/c2000/C2000Ware_4_00_00_00/device_support/f2837xd/common/source/F2837xD_DefaultISR.c",line 1174,column 5,is_stmt,isa 0
;----------------------------------------------------------------------
; 1174 | for(;;);                                                               
;----------------------------------------------------------------------
        B         $C$L54,UNC            ; [CPU_ALU] |1174| 
        ; branch occurs ; [] |1174| 
	.dwattr $C$DW$54, DW_AT_TI_end_file("C:/TI/c2000/C2000Ware_4_00_00_00/device_support/f2837xd/common/source/F2837xD_DefaultISR.c")
	.dwattr $C$DW$54, DW_AT_TI_end_line(0x497)
	.dwattr $C$DW$54, DW_AT_TI_end_column(0x01)
	.dwendentry
	.dwendtag $C$DW$54

	.sect	".text:retain"
	.retain
	.retainrefs
	.global	_SPIB_RX_ISR

$C$DW$55	.dwtag  DW_TAG_subprogram
	.dwattr $C$DW$55, DW_AT_name("SPIB_RX_ISR")
	.dwattr $C$DW$55, DW_AT_low_pc(_SPIB_RX_ISR)
	.dwattr $C$DW$55, DW_AT_high_pc(0x00)
	.dwattr $C$DW$55, DW_AT_TI_symbol_name("_SPIB_RX_ISR")
	.dwattr $C$DW$55, DW_AT_external
	.dwattr $C$DW$55, DW_AT_TI_begin_file("C:/TI/c2000/C2000Ware_4_00_00_00/device_support/f2837xd/common/source/F2837xD_DefaultISR.c")
	.dwattr $C$DW$55, DW_AT_TI_begin_line(0x49c)
	.dwattr $C$DW$55, DW_AT_TI_begin_column(0x10)
	.dwattr $C$DW$55, DW_AT_TI_interrupt
	.dwattr $C$DW$55, DW_AT_TI_max_frame_size(-6)
	.dwpsn	file "C:/TI/c2000/C2000Ware_4_00_00_00/device_support/f2837xd/common/source/F2837xD_DefaultISR.c",line 1181,column 1,is_stmt,address _SPIB_RX_ISR,isa 0

	.dwfde $C$DW$CIE, _SPIB_RX_ISR
;----------------------------------------------------------------------
; 1180 | interrupt void SPIB_RX_ISR(void)                                       
; 1182 | //                                                                     
; 1183 | // Insert ISR Code here                                                
; 1184 | //                                                                     
; 1186 | //                                                                     
; 1187 | // To receive more interrupts from this PIE group,                     
; 1188 | // acknowledge this interrupt.                                         
; 1189 | // PieCtrlRegs.PIEACK.all = PIEACK_GROUP6;                             
; 1190 | //                                                                     
; 1192 | //                                                                     
; 1193 | // Next two lines for debug only to halt the processor here            
; 1194 | // Remove after inserting ISR Code                                     
; 1195 | //                                                                     
;----------------------------------------------------------------------

;***************************************************************
;* FNAME: _SPIB_RX_ISR                  FR SIZE:   4           *
;*                                                             *
;* FUNCTION ENVIRONMENT                                        *
;*                                                             *
;* FUNCTION PROPERTIES                                         *
;*                            0 Parameter,  0 Auto,  4 SOE     *
;***************************************************************

_SPIB_RX_ISR:
	.dwcfi	cfa_offset, -2
	.dwcfi	save_reg_to_mem, 26, 0
        ASP       ; [CPU_ALU] 
        PUSH      RB                    ; [CPU_FPU] 
	.dwcfi	save_reg_to_mem, 74, 4
	.dwcfi	cfa_offset, -4
        MOV32     *SP++,STF             ; [CPU_FPU] 
	.dwcfi	save_reg_to_mem, 40, 6
	.dwcfi	cfa_offset, -6
        SETFLG    RNDF32=1, RNDF64=1    ; [CPU_FPU] 
        CLRC      PAGE0,OVM             ; [CPU_ALU] 
        CLRC      AMODE                 ; [CPU_ALU] 
	.dwpsn	file "C:/TI/c2000/C2000Ware_4_00_00_00/device_support/f2837xd/common/source/F2837xD_DefaultISR.c",line 1196,column 5,is_stmt,isa 0
;----------------------------------------------------------------------
; 1196 | asm ("      ESTOP0");                                                  
;----------------------------------------------------------------------
      ESTOP0
$C$L55:    
	.dwpsn	file "C:/TI/c2000/C2000Ware_4_00_00_00/device_support/f2837xd/common/source/F2837xD_DefaultISR.c",line 1197,column 5,is_stmt,isa 0
;----------------------------------------------------------------------
; 1197 | for(;;);                                                               
;----------------------------------------------------------------------
        B         $C$L55,UNC            ; [CPU_ALU] |1197| 
        ; branch occurs ; [] |1197| 
	.dwattr $C$DW$55, DW_AT_TI_end_file("C:/TI/c2000/C2000Ware_4_00_00_00/device_support/f2837xd/common/source/F2837xD_DefaultISR.c")
	.dwattr $C$DW$55, DW_AT_TI_end_line(0x4ae)
	.dwattr $C$DW$55, DW_AT_TI_end_column(0x01)
	.dwendentry
	.dwendtag $C$DW$55

	.sect	".text:retain"
	.retain
	.retainrefs
	.global	_SPIB_TX_ISR

$C$DW$56	.dwtag  DW_TAG_subprogram
	.dwattr $C$DW$56, DW_AT_name("SPIB_TX_ISR")
	.dwattr $C$DW$56, DW_AT_low_pc(_SPIB_TX_ISR)
	.dwattr $C$DW$56, DW_AT_high_pc(0x00)
	.dwattr $C$DW$56, DW_AT_TI_symbol_name("_SPIB_TX_ISR")
	.dwattr $C$DW$56, DW_AT_external
	.dwattr $C$DW$56, DW_AT_TI_begin_file("C:/TI/c2000/C2000Ware_4_00_00_00/device_support/f2837xd/common/source/F2837xD_DefaultISR.c")
	.dwattr $C$DW$56, DW_AT_TI_begin_line(0x4b3)
	.dwattr $C$DW$56, DW_AT_TI_begin_column(0x10)
	.dwattr $C$DW$56, DW_AT_TI_interrupt
	.dwattr $C$DW$56, DW_AT_TI_max_frame_size(-6)
	.dwpsn	file "C:/TI/c2000/C2000Ware_4_00_00_00/device_support/f2837xd/common/source/F2837xD_DefaultISR.c",line 1204,column 1,is_stmt,address _SPIB_TX_ISR,isa 0

	.dwfde $C$DW$CIE, _SPIB_TX_ISR
;----------------------------------------------------------------------
; 1203 | interrupt void SPIB_TX_ISR(void)                                       
; 1205 | //                                                                     
; 1206 | // Insert ISR Code here                                                
; 1207 | //                                                                     
; 1209 | //                                                                     
; 1210 | // To receive more interrupts from this PIE group,                     
; 1211 | // acknowledge this interrupt.                                         
; 1212 | // PieCtrlRegs.PIEACK.all = PIEACK_GROUP6;                             
; 1213 | //                                                                     
; 1215 | //                                                                     
; 1216 | // Next two lines for debug only to halt the processor here            
; 1217 | // Remove after inserting ISR Code                                     
; 1218 | //                                                                     
;----------------------------------------------------------------------

;***************************************************************
;* FNAME: _SPIB_TX_ISR                  FR SIZE:   4           *
;*                                                             *
;* FUNCTION ENVIRONMENT                                        *
;*                                                             *
;* FUNCTION PROPERTIES                                         *
;*                            0 Parameter,  0 Auto,  4 SOE     *
;***************************************************************

_SPIB_TX_ISR:
	.dwcfi	cfa_offset, -2
	.dwcfi	save_reg_to_mem, 26, 0
        ASP       ; [CPU_ALU] 
        PUSH      RB                    ; [CPU_FPU] 
	.dwcfi	save_reg_to_mem, 74, 4
	.dwcfi	cfa_offset, -4
        MOV32     *SP++,STF             ; [CPU_FPU] 
	.dwcfi	save_reg_to_mem, 40, 6
	.dwcfi	cfa_offset, -6
        SETFLG    RNDF32=1, RNDF64=1    ; [CPU_FPU] 
        CLRC      PAGE0,OVM             ; [CPU_ALU] 
        CLRC      AMODE                 ; [CPU_ALU] 
	.dwpsn	file "C:/TI/c2000/C2000Ware_4_00_00_00/device_support/f2837xd/common/source/F2837xD_DefaultISR.c",line 1219,column 5,is_stmt,isa 0
;----------------------------------------------------------------------
; 1219 | asm ("      ESTOP0");                                                  
;----------------------------------------------------------------------
      ESTOP0
$C$L56:    
	.dwpsn	file "C:/TI/c2000/C2000Ware_4_00_00_00/device_support/f2837xd/common/source/F2837xD_DefaultISR.c",line 1220,column 5,is_stmt,isa 0
;----------------------------------------------------------------------
; 1220 | for(;;);                                                               
;----------------------------------------------------------------------
        B         $C$L56,UNC            ; [CPU_ALU] |1220| 
        ; branch occurs ; [] |1220| 
	.dwattr $C$DW$56, DW_AT_TI_end_file("C:/TI/c2000/C2000Ware_4_00_00_00/device_support/f2837xd/common/source/F2837xD_DefaultISR.c")
	.dwattr $C$DW$56, DW_AT_TI_end_line(0x4c5)
	.dwattr $C$DW$56, DW_AT_TI_end_column(0x01)
	.dwendentry
	.dwendtag $C$DW$56

	.sect	".text:retain"
	.retain
	.retainrefs
	.global	_MCBSPA_RX_ISR

$C$DW$57	.dwtag  DW_TAG_subprogram
	.dwattr $C$DW$57, DW_AT_name("MCBSPA_RX_ISR")
	.dwattr $C$DW$57, DW_AT_low_pc(_MCBSPA_RX_ISR)
	.dwattr $C$DW$57, DW_AT_high_pc(0x00)
	.dwattr $C$DW$57, DW_AT_TI_symbol_name("_MCBSPA_RX_ISR")
	.dwattr $C$DW$57, DW_AT_external
	.dwattr $C$DW$57, DW_AT_TI_begin_file("C:/TI/c2000/C2000Ware_4_00_00_00/device_support/f2837xd/common/source/F2837xD_DefaultISR.c")
	.dwattr $C$DW$57, DW_AT_TI_begin_line(0x4ca)
	.dwattr $C$DW$57, DW_AT_TI_begin_column(0x10)
	.dwattr $C$DW$57, DW_AT_TI_interrupt
	.dwattr $C$DW$57, DW_AT_TI_max_frame_size(-6)
	.dwpsn	file "C:/TI/c2000/C2000Ware_4_00_00_00/device_support/f2837xd/common/source/F2837xD_DefaultISR.c",line 1227,column 1,is_stmt,address _MCBSPA_RX_ISR,isa 0

	.dwfde $C$DW$CIE, _MCBSPA_RX_ISR
;----------------------------------------------------------------------
; 1226 | interrupt void MCBSPA_RX_ISR(void)                                     
; 1228 | //                                                                     
; 1229 | // Insert ISR Code here                                                
; 1230 | //                                                                     
; 1232 | //                                                                     
; 1233 | // To receive more interrupts from this PIE group,                     
; 1234 | // acknowledge this interrupt.                                         
; 1235 | // PieCtrlRegs.PIEACK.all = PIEACK_GROUP6;                             
; 1236 | //                                                                     
; 1238 | //                                                                     
; 1239 | // Next two lines for debug only to halt the processor here            
; 1240 | // Remove after inserting ISR Code                                     
; 1241 | //                                                                     
;----------------------------------------------------------------------

;***************************************************************
;* FNAME: _MCBSPA_RX_ISR                FR SIZE:   4           *
;*                                                             *
;* FUNCTION ENVIRONMENT                                        *
;*                                                             *
;* FUNCTION PROPERTIES                                         *
;*                            0 Parameter,  0 Auto,  4 SOE     *
;***************************************************************

_MCBSPA_RX_ISR:
	.dwcfi	cfa_offset, -2
	.dwcfi	save_reg_to_mem, 26, 0
        ASP       ; [CPU_ALU] 
        PUSH      RB                    ; [CPU_FPU] 
	.dwcfi	save_reg_to_mem, 74, 4
	.dwcfi	cfa_offset, -4
        MOV32     *SP++,STF             ; [CPU_FPU] 
	.dwcfi	save_reg_to_mem, 40, 6
	.dwcfi	cfa_offset, -6
        SETFLG    RNDF32=1, RNDF64=1    ; [CPU_FPU] 
        CLRC      PAGE0,OVM             ; [CPU_ALU] 
        CLRC      AMODE                 ; [CPU_ALU] 
	.dwpsn	file "C:/TI/c2000/C2000Ware_4_00_00_00/device_support/f2837xd/common/source/F2837xD_DefaultISR.c",line 1242,column 5,is_stmt,isa 0
;----------------------------------------------------------------------
; 1242 | asm ("      ESTOP0");                                                  
;----------------------------------------------------------------------
      ESTOP0
$C$L57:    
	.dwpsn	file "C:/TI/c2000/C2000Ware_4_00_00_00/device_support/f2837xd/common/source/F2837xD_DefaultISR.c",line 1243,column 5,is_stmt,isa 0
;----------------------------------------------------------------------
; 1243 | for(;;);                                                               
;----------------------------------------------------------------------
        B         $C$L57,UNC            ; [CPU_ALU] |1243| 
        ; branch occurs ; [] |1243| 
	.dwattr $C$DW$57, DW_AT_TI_end_file("C:/TI/c2000/C2000Ware_4_00_00_00/device_support/f2837xd/common/source/F2837xD_DefaultISR.c")
	.dwattr $C$DW$57, DW_AT_TI_end_line(0x4dc)
	.dwattr $C$DW$57, DW_AT_TI_end_column(0x01)
	.dwendentry
	.dwendtag $C$DW$57

	.sect	".text:retain"
	.retain
	.retainrefs
	.global	_MCBSPA_TX_ISR

$C$DW$58	.dwtag  DW_TAG_subprogram
	.dwattr $C$DW$58, DW_AT_name("MCBSPA_TX_ISR")
	.dwattr $C$DW$58, DW_AT_low_pc(_MCBSPA_TX_ISR)
	.dwattr $C$DW$58, DW_AT_high_pc(0x00)
	.dwattr $C$DW$58, DW_AT_TI_symbol_name("_MCBSPA_TX_ISR")
	.dwattr $C$DW$58, DW_AT_external
	.dwattr $C$DW$58, DW_AT_TI_begin_file("C:/TI/c2000/C2000Ware_4_00_00_00/device_support/f2837xd/common/source/F2837xD_DefaultISR.c")
	.dwattr $C$DW$58, DW_AT_TI_begin_line(0x4e1)
	.dwattr $C$DW$58, DW_AT_TI_begin_column(0x10)
	.dwattr $C$DW$58, DW_AT_TI_interrupt
	.dwattr $C$DW$58, DW_AT_TI_max_frame_size(-6)
	.dwpsn	file "C:/TI/c2000/C2000Ware_4_00_00_00/device_support/f2837xd/common/source/F2837xD_DefaultISR.c",line 1250,column 1,is_stmt,address _MCBSPA_TX_ISR,isa 0

	.dwfde $C$DW$CIE, _MCBSPA_TX_ISR
;----------------------------------------------------------------------
; 1249 | interrupt void MCBSPA_TX_ISR(void)                                     
; 1251 | //                                                                     
; 1252 | // Insert ISR Code here                                                
; 1253 | //                                                                     
; 1255 | //                                                                     
; 1256 | // To receive more interrupts from this PIE group,                     
; 1257 | // acknowledge this interrupt.                                         
; 1258 | // PieCtrlRegs.PIEACK.all = PIEACK_GROUP6;                             
; 1259 | //                                                                     
; 1261 | //                                                                     
; 1262 | // Next two lines for debug only to halt the processor here            
; 1263 | // Remove after inserting ISR Code                                     
; 1264 | //                                                                     
;----------------------------------------------------------------------

;***************************************************************
;* FNAME: _MCBSPA_TX_ISR                FR SIZE:   4           *
;*                                                             *
;* FUNCTION ENVIRONMENT                                        *
;*                                                             *
;* FUNCTION PROPERTIES                                         *
;*                            0 Parameter,  0 Auto,  4 SOE     *
;***************************************************************

_MCBSPA_TX_ISR:
	.dwcfi	cfa_offset, -2
	.dwcfi	save_reg_to_mem, 26, 0
        ASP       ; [CPU_ALU] 
        PUSH      RB                    ; [CPU_FPU] 
	.dwcfi	save_reg_to_mem, 74, 4
	.dwcfi	cfa_offset, -4
        MOV32     *SP++,STF             ; [CPU_FPU] 
	.dwcfi	save_reg_to_mem, 40, 6
	.dwcfi	cfa_offset, -6
        SETFLG    RNDF32=1, RNDF64=1    ; [CPU_FPU] 
        CLRC      PAGE0,OVM             ; [CPU_ALU] 
        CLRC      AMODE                 ; [CPU_ALU] 
	.dwpsn	file "C:/TI/c2000/C2000Ware_4_00_00_00/device_support/f2837xd/common/source/F2837xD_DefaultISR.c",line 1265,column 5,is_stmt,isa 0
;----------------------------------------------------------------------
; 1265 | asm ("      ESTOP0");                                                  
;----------------------------------------------------------------------
      ESTOP0
$C$L58:    
	.dwpsn	file "C:/TI/c2000/C2000Ware_4_00_00_00/device_support/f2837xd/common/source/F2837xD_DefaultISR.c",line 1266,column 5,is_stmt,isa 0
;----------------------------------------------------------------------
; 1266 | for(;;);                                                               
;----------------------------------------------------------------------
        B         $C$L58,UNC            ; [CPU_ALU] |1266| 
        ; branch occurs ; [] |1266| 
	.dwattr $C$DW$58, DW_AT_TI_end_file("C:/TI/c2000/C2000Ware_4_00_00_00/device_support/f2837xd/common/source/F2837xD_DefaultISR.c")
	.dwattr $C$DW$58, DW_AT_TI_end_line(0x4f3)
	.dwattr $C$DW$58, DW_AT_TI_end_column(0x01)
	.dwendentry
	.dwendtag $C$DW$58

	.sect	".text:retain"
	.retain
	.retainrefs
	.global	_MCBSPB_RX_ISR

$C$DW$59	.dwtag  DW_TAG_subprogram
	.dwattr $C$DW$59, DW_AT_name("MCBSPB_RX_ISR")
	.dwattr $C$DW$59, DW_AT_low_pc(_MCBSPB_RX_ISR)
	.dwattr $C$DW$59, DW_AT_high_pc(0x00)
	.dwattr $C$DW$59, DW_AT_TI_symbol_name("_MCBSPB_RX_ISR")
	.dwattr $C$DW$59, DW_AT_external
	.dwattr $C$DW$59, DW_AT_TI_begin_file("C:/TI/c2000/C2000Ware_4_00_00_00/device_support/f2837xd/common/source/F2837xD_DefaultISR.c")
	.dwattr $C$DW$59, DW_AT_TI_begin_line(0x4f8)
	.dwattr $C$DW$59, DW_AT_TI_begin_column(0x10)
	.dwattr $C$DW$59, DW_AT_TI_interrupt
	.dwattr $C$DW$59, DW_AT_TI_max_frame_size(-6)
	.dwpsn	file "C:/TI/c2000/C2000Ware_4_00_00_00/device_support/f2837xd/common/source/F2837xD_DefaultISR.c",line 1273,column 1,is_stmt,address _MCBSPB_RX_ISR,isa 0

	.dwfde $C$DW$CIE, _MCBSPB_RX_ISR
;----------------------------------------------------------------------
; 1272 | interrupt void MCBSPB_RX_ISR(void)                                     
; 1274 | //                                                                     
; 1275 | // Insert ISR Code here                                                
; 1276 | //                                                                     
; 1278 | //                                                                     
; 1279 | // To receive more interrupts from this PIE group,                     
; 1280 | // acknowledge this interrupt.                                         
; 1281 | // PieCtrlRegs.PIEACK.all = PIEACK_GROUP6;                             
; 1282 | //                                                                     
; 1284 | //                                                                     
; 1285 | // Next two lines for debug only to halt the processor here            
; 1286 | // Remove after inserting ISR Code                                     
; 1287 | //                                                                     
;----------------------------------------------------------------------

;***************************************************************
;* FNAME: _MCBSPB_RX_ISR                FR SIZE:   4           *
;*                                                             *
;* FUNCTION ENVIRONMENT                                        *
;*                                                             *
;* FUNCTION PROPERTIES                                         *
;*                            0 Parameter,  0 Auto,  4 SOE     *
;***************************************************************

_MCBSPB_RX_ISR:
	.dwcfi	cfa_offset, -2
	.dwcfi	save_reg_to_mem, 26, 0
        ASP       ; [CPU_ALU] 
        PUSH      RB                    ; [CPU_FPU] 
	.dwcfi	save_reg_to_mem, 74, 4
	.dwcfi	cfa_offset, -4
        MOV32     *SP++,STF             ; [CPU_FPU] 
	.dwcfi	save_reg_to_mem, 40, 6
	.dwcfi	cfa_offset, -6
        SETFLG    RNDF32=1, RNDF64=1    ; [CPU_FPU] 
        CLRC      PAGE0,OVM             ; [CPU_ALU] 
        CLRC      AMODE                 ; [CPU_ALU] 
	.dwpsn	file "C:/TI/c2000/C2000Ware_4_00_00_00/device_support/f2837xd/common/source/F2837xD_DefaultISR.c",line 1288,column 5,is_stmt,isa 0
;----------------------------------------------------------------------
; 1288 | asm ("      ESTOP0");                                                  
;----------------------------------------------------------------------
      ESTOP0
$C$L59:    
	.dwpsn	file "C:/TI/c2000/C2000Ware_4_00_00_00/device_support/f2837xd/common/source/F2837xD_DefaultISR.c",line 1289,column 5,is_stmt,isa 0
;----------------------------------------------------------------------
; 1289 | for(;;);                                                               
;----------------------------------------------------------------------
        B         $C$L59,UNC            ; [CPU_ALU] |1289| 
        ; branch occurs ; [] |1289| 
	.dwattr $C$DW$59, DW_AT_TI_end_file("C:/TI/c2000/C2000Ware_4_00_00_00/device_support/f2837xd/common/source/F2837xD_DefaultISR.c")
	.dwattr $C$DW$59, DW_AT_TI_end_line(0x50a)
	.dwattr $C$DW$59, DW_AT_TI_end_column(0x01)
	.dwendentry
	.dwendtag $C$DW$59

	.sect	".text:retain"
	.retain
	.retainrefs
	.global	_MCBSPB_TX_ISR

$C$DW$60	.dwtag  DW_TAG_subprogram
	.dwattr $C$DW$60, DW_AT_name("MCBSPB_TX_ISR")
	.dwattr $C$DW$60, DW_AT_low_pc(_MCBSPB_TX_ISR)
	.dwattr $C$DW$60, DW_AT_high_pc(0x00)
	.dwattr $C$DW$60, DW_AT_TI_symbol_name("_MCBSPB_TX_ISR")
	.dwattr $C$DW$60, DW_AT_external
	.dwattr $C$DW$60, DW_AT_TI_begin_file("C:/TI/c2000/C2000Ware_4_00_00_00/device_support/f2837xd/common/source/F2837xD_DefaultISR.c")
	.dwattr $C$DW$60, DW_AT_TI_begin_line(0x50f)
	.dwattr $C$DW$60, DW_AT_TI_begin_column(0x10)
	.dwattr $C$DW$60, DW_AT_TI_interrupt
	.dwattr $C$DW$60, DW_AT_TI_max_frame_size(-6)
	.dwpsn	file "C:/TI/c2000/C2000Ware_4_00_00_00/device_support/f2837xd/common/source/F2837xD_DefaultISR.c",line 1296,column 1,is_stmt,address _MCBSPB_TX_ISR,isa 0

	.dwfde $C$DW$CIE, _MCBSPB_TX_ISR
;----------------------------------------------------------------------
; 1295 | interrupt void MCBSPB_TX_ISR(void)                                     
; 1297 | //                                                                     
; 1298 | // Insert ISR Code here                                                
; 1299 | //                                                                     
; 1301 | //                                                                     
; 1302 | // To receive more interrupts from this PIE group,                     
; 1303 | // acknowledge this interrupt.                                         
; 1304 | // PieCtrlRegs.PIEACK.all = PIEACK_GROUP6;                             
; 1305 | //                                                                     
; 1307 | //                                                                     
; 1308 | // Next two lines for debug only to halt the processor here            
; 1309 | // Remove after inserting ISR Code                                     
; 1310 | //                                                                     
;----------------------------------------------------------------------

;***************************************************************
;* FNAME: _MCBSPB_TX_ISR                FR SIZE:   4           *
;*                                                             *
;* FUNCTION ENVIRONMENT                                        *
;*                                                             *
;* FUNCTION PROPERTIES                                         *
;*                            0 Parameter,  0 Auto,  4 SOE     *
;***************************************************************

_MCBSPB_TX_ISR:
	.dwcfi	cfa_offset, -2
	.dwcfi	save_reg_to_mem, 26, 0
        ASP       ; [CPU_ALU] 
        PUSH      RB                    ; [CPU_FPU] 
	.dwcfi	save_reg_to_mem, 74, 4
	.dwcfi	cfa_offset, -4
        MOV32     *SP++,STF             ; [CPU_FPU] 
	.dwcfi	save_reg_to_mem, 40, 6
	.dwcfi	cfa_offset, -6
        SETFLG    RNDF32=1, RNDF64=1    ; [CPU_FPU] 
        CLRC      PAGE0,OVM             ; [CPU_ALU] 
        CLRC      AMODE                 ; [CPU_ALU] 
	.dwpsn	file "C:/TI/c2000/C2000Ware_4_00_00_00/device_support/f2837xd/common/source/F2837xD_DefaultISR.c",line 1311,column 5,is_stmt,isa 0
;----------------------------------------------------------------------
; 1311 | asm ("      ESTOP0");                                                  
;----------------------------------------------------------------------
      ESTOP0
$C$L60:    
	.dwpsn	file "C:/TI/c2000/C2000Ware_4_00_00_00/device_support/f2837xd/common/source/F2837xD_DefaultISR.c",line 1312,column 5,is_stmt,isa 0
;----------------------------------------------------------------------
; 1312 | for(;;);                                                               
;----------------------------------------------------------------------
        B         $C$L60,UNC            ; [CPU_ALU] |1312| 
        ; branch occurs ; [] |1312| 
	.dwattr $C$DW$60, DW_AT_TI_end_file("C:/TI/c2000/C2000Ware_4_00_00_00/device_support/f2837xd/common/source/F2837xD_DefaultISR.c")
	.dwattr $C$DW$60, DW_AT_TI_end_line(0x521)
	.dwattr $C$DW$60, DW_AT_TI_end_column(0x01)
	.dwendentry
	.dwendtag $C$DW$60

	.sect	".text:retain"
	.retain
	.retainrefs
	.global	_DMA_CH1_ISR

$C$DW$61	.dwtag  DW_TAG_subprogram
	.dwattr $C$DW$61, DW_AT_name("DMA_CH1_ISR")
	.dwattr $C$DW$61, DW_AT_low_pc(_DMA_CH1_ISR)
	.dwattr $C$DW$61, DW_AT_high_pc(0x00)
	.dwattr $C$DW$61, DW_AT_TI_symbol_name("_DMA_CH1_ISR")
	.dwattr $C$DW$61, DW_AT_external
	.dwattr $C$DW$61, DW_AT_TI_begin_file("C:/TI/c2000/C2000Ware_4_00_00_00/device_support/f2837xd/common/source/F2837xD_DefaultISR.c")
	.dwattr $C$DW$61, DW_AT_TI_begin_line(0x526)
	.dwattr $C$DW$61, DW_AT_TI_begin_column(0x10)
	.dwattr $C$DW$61, DW_AT_TI_interrupt
	.dwattr $C$DW$61, DW_AT_TI_max_frame_size(-6)
	.dwpsn	file "C:/TI/c2000/C2000Ware_4_00_00_00/device_support/f2837xd/common/source/F2837xD_DefaultISR.c",line 1319,column 1,is_stmt,address _DMA_CH1_ISR,isa 0

	.dwfde $C$DW$CIE, _DMA_CH1_ISR
;----------------------------------------------------------------------
; 1318 | interrupt void DMA_CH1_ISR(void)                                       
; 1320 | //                                                                     
; 1321 | // Insert ISR Code here                                                
; 1322 | //                                                                     
; 1324 | //                                                                     
; 1325 | // To receive more interrupts from this PIE group,                     
; 1326 | // acknowledge this interrupt.                                         
; 1327 | // PieCtrlRegs.PIEACK.all = PIEACK_GROUP7;                             
; 1328 | //                                                                     
; 1330 | //                                                                     
; 1331 | // Next two lines for debug only to halt the processor here            
; 1332 | // Remove after inserting ISR Code                                     
; 1333 | //                                                                     
;----------------------------------------------------------------------

;***************************************************************
;* FNAME: _DMA_CH1_ISR                  FR SIZE:   4           *
;*                                                             *
;* FUNCTION ENVIRONMENT                                        *
;*                                                             *
;* FUNCTION PROPERTIES                                         *
;*                            0 Parameter,  0 Auto,  4 SOE     *
;***************************************************************

_DMA_CH1_ISR:
	.dwcfi	cfa_offset, -2
	.dwcfi	save_reg_to_mem, 26, 0
        ASP       ; [CPU_ALU] 
        PUSH      RB                    ; [CPU_FPU] 
	.dwcfi	save_reg_to_mem, 74, 4
	.dwcfi	cfa_offset, -4
        MOV32     *SP++,STF             ; [CPU_FPU] 
	.dwcfi	save_reg_to_mem, 40, 6
	.dwcfi	cfa_offset, -6
        SETFLG    RNDF32=1, RNDF64=1    ; [CPU_FPU] 
        CLRC      PAGE0,OVM             ; [CPU_ALU] 
        CLRC      AMODE                 ; [CPU_ALU] 
	.dwpsn	file "C:/TI/c2000/C2000Ware_4_00_00_00/device_support/f2837xd/common/source/F2837xD_DefaultISR.c",line 1334,column 5,is_stmt,isa 0
;----------------------------------------------------------------------
; 1334 | asm ("      ESTOP0");                                                  
;----------------------------------------------------------------------
      ESTOP0
$C$L61:    
	.dwpsn	file "C:/TI/c2000/C2000Ware_4_00_00_00/device_support/f2837xd/common/source/F2837xD_DefaultISR.c",line 1335,column 5,is_stmt,isa 0
;----------------------------------------------------------------------
; 1335 | for(;;);                                                               
;----------------------------------------------------------------------
        B         $C$L61,UNC            ; [CPU_ALU] |1335| 
        ; branch occurs ; [] |1335| 
	.dwattr $C$DW$61, DW_AT_TI_end_file("C:/TI/c2000/C2000Ware_4_00_00_00/device_support/f2837xd/common/source/F2837xD_DefaultISR.c")
	.dwattr $C$DW$61, DW_AT_TI_end_line(0x538)
	.dwattr $C$DW$61, DW_AT_TI_end_column(0x01)
	.dwendentry
	.dwendtag $C$DW$61

	.sect	".text:retain"
	.retain
	.retainrefs
	.global	_DMA_CH2_ISR

$C$DW$62	.dwtag  DW_TAG_subprogram
	.dwattr $C$DW$62, DW_AT_name("DMA_CH2_ISR")
	.dwattr $C$DW$62, DW_AT_low_pc(_DMA_CH2_ISR)
	.dwattr $C$DW$62, DW_AT_high_pc(0x00)
	.dwattr $C$DW$62, DW_AT_TI_symbol_name("_DMA_CH2_ISR")
	.dwattr $C$DW$62, DW_AT_external
	.dwattr $C$DW$62, DW_AT_TI_begin_file("C:/TI/c2000/C2000Ware_4_00_00_00/device_support/f2837xd/common/source/F2837xD_DefaultISR.c")
	.dwattr $C$DW$62, DW_AT_TI_begin_line(0x53d)
	.dwattr $C$DW$62, DW_AT_TI_begin_column(0x10)
	.dwattr $C$DW$62, DW_AT_TI_interrupt
	.dwattr $C$DW$62, DW_AT_TI_max_frame_size(-6)
	.dwpsn	file "C:/TI/c2000/C2000Ware_4_00_00_00/device_support/f2837xd/common/source/F2837xD_DefaultISR.c",line 1342,column 1,is_stmt,address _DMA_CH2_ISR,isa 0

	.dwfde $C$DW$CIE, _DMA_CH2_ISR
;----------------------------------------------------------------------
; 1341 | interrupt void DMA_CH2_ISR(void)                                       
; 1343 | //                                                                     
; 1344 | // Insert ISR Code here                                                
; 1345 | //                                                                     
; 1347 | //                                                                     
; 1348 | // To receive more interrupts from this PIE group,                     
; 1349 | // acknowledge this interrupt.                                         
; 1350 | // PieCtrlRegs.PIEACK.all = PIEACK_GROUP7;                             
; 1351 | //                                                                     
; 1353 | //                                                                     
; 1354 | // Next two lines for debug only to halt the processor here            
; 1355 | // Remove after inserting ISR Code                                     
; 1356 | //                                                                     
;----------------------------------------------------------------------

;***************************************************************
;* FNAME: _DMA_CH2_ISR                  FR SIZE:   4           *
;*                                                             *
;* FUNCTION ENVIRONMENT                                        *
;*                                                             *
;* FUNCTION PROPERTIES                                         *
;*                            0 Parameter,  0 Auto,  4 SOE     *
;***************************************************************

_DMA_CH2_ISR:
	.dwcfi	cfa_offset, -2
	.dwcfi	save_reg_to_mem, 26, 0
        ASP       ; [CPU_ALU] 
        PUSH      RB                    ; [CPU_FPU] 
	.dwcfi	save_reg_to_mem, 74, 4
	.dwcfi	cfa_offset, -4
        MOV32     *SP++,STF             ; [CPU_FPU] 
	.dwcfi	save_reg_to_mem, 40, 6
	.dwcfi	cfa_offset, -6
        SETFLG    RNDF32=1, RNDF64=1    ; [CPU_FPU] 
        CLRC      PAGE0,OVM             ; [CPU_ALU] 
        CLRC      AMODE                 ; [CPU_ALU] 
	.dwpsn	file "C:/TI/c2000/C2000Ware_4_00_00_00/device_support/f2837xd/common/source/F2837xD_DefaultISR.c",line 1357,column 5,is_stmt,isa 0
;----------------------------------------------------------------------
; 1357 | asm ("      ESTOP0");                                                  
;----------------------------------------------------------------------
      ESTOP0
$C$L62:    
	.dwpsn	file "C:/TI/c2000/C2000Ware_4_00_00_00/device_support/f2837xd/common/source/F2837xD_DefaultISR.c",line 1358,column 5,is_stmt,isa 0
;----------------------------------------------------------------------
; 1358 | for(;;);                                                               
;----------------------------------------------------------------------
        B         $C$L62,UNC            ; [CPU_ALU] |1358| 
        ; branch occurs ; [] |1358| 
	.dwattr $C$DW$62, DW_AT_TI_end_file("C:/TI/c2000/C2000Ware_4_00_00_00/device_support/f2837xd/common/source/F2837xD_DefaultISR.c")
	.dwattr $C$DW$62, DW_AT_TI_end_line(0x54f)
	.dwattr $C$DW$62, DW_AT_TI_end_column(0x01)
	.dwendentry
	.dwendtag $C$DW$62

	.sect	".text:retain"
	.retain
	.retainrefs
	.global	_DMA_CH3_ISR

$C$DW$63	.dwtag  DW_TAG_subprogram
	.dwattr $C$DW$63, DW_AT_name("DMA_CH3_ISR")
	.dwattr $C$DW$63, DW_AT_low_pc(_DMA_CH3_ISR)
	.dwattr $C$DW$63, DW_AT_high_pc(0x00)
	.dwattr $C$DW$63, DW_AT_TI_symbol_name("_DMA_CH3_ISR")
	.dwattr $C$DW$63, DW_AT_external
	.dwattr $C$DW$63, DW_AT_TI_begin_file("C:/TI/c2000/C2000Ware_4_00_00_00/device_support/f2837xd/common/source/F2837xD_DefaultISR.c")
	.dwattr $C$DW$63, DW_AT_TI_begin_line(0x554)
	.dwattr $C$DW$63, DW_AT_TI_begin_column(0x10)
	.dwattr $C$DW$63, DW_AT_TI_interrupt
	.dwattr $C$DW$63, DW_AT_TI_max_frame_size(-6)
	.dwpsn	file "C:/TI/c2000/C2000Ware_4_00_00_00/device_support/f2837xd/common/source/F2837xD_DefaultISR.c",line 1365,column 1,is_stmt,address _DMA_CH3_ISR,isa 0

	.dwfde $C$DW$CIE, _DMA_CH3_ISR
;----------------------------------------------------------------------
; 1364 | interrupt void DMA_CH3_ISR(void)                                       
; 1366 | //                                                                     
; 1367 | // Insert ISR Code here                                                
; 1368 | //                                                                     
; 1370 | //                                                                     
; 1371 | // To receive more interrupts from this PIE group,                     
; 1372 | // acknowledge this interrupt.                                         
; 1373 | // PieCtrlRegs.PIEACK.all = PIEACK_GROUP7;                             
; 1374 | //                                                                     
; 1376 | //                                                                     
; 1377 | // Next two lines for debug only to halt the processor here            
; 1378 | // Remove after inserting ISR Code                                     
; 1379 | //                                                                     
;----------------------------------------------------------------------

;***************************************************************
;* FNAME: _DMA_CH3_ISR                  FR SIZE:   4           *
;*                                                             *
;* FUNCTION ENVIRONMENT                                        *
;*                                                             *
;* FUNCTION PROPERTIES                                         *
;*                            0 Parameter,  0 Auto,  4 SOE     *
